ARM GAS  /tmp/ccYD2xbR.s 			page 1


   1              		.syntax unified
   2              		.cpu cortex-m3
   3              		.fpu softvfp
   4              		.eabi_attribute 20, 1
   5              		.eabi_attribute 21, 1
   6              		.eabi_attribute 23, 3
   7              		.eabi_attribute 24, 1
   8              		.eabi_attribute 25, 1
   9              		.eabi_attribute 26, 1
  10              		.eabi_attribute 30, 2
  11              		.eabi_attribute 18, 4
  12              		.thumb
  13              		.file	"chprintf.c"
  20 0000 3C020000 		.text
  20      02004E01 
  20      00000201 
  20      FB0E0D00 
  20      01010101 
  21              	.Ltext0:
  22              		.cfi_sections	.debug_frame
  23              		.section	.text.ltoa,"ax",%progbits
  24              		.align	2
  25              		.p2align 4,,15
  26              		.thumb
  27              		.thumb_func
  28              		.type	ltoa, %function
  29              	ltoa:
  30              	.LFB7:
  31              		.file 1 "../../../os/various/chprintf.c"
  32              		.loc 1 27 0
  33              		.cfi_startproc
  34              		@ args = 0, pretend = 0, frame = 0
  35              		@ frame_needed = 0, uses_anonymous_args = 0
  36              		@ link register save eliminated.
  37              	.LVL0:
  38              		.loc 1 31 0
  39 0000 00F10B03 		add	r3, r0, #11
  40              	.LVL1:
  41              		.loc 1 27 0
  42 0004 30B4     		push	{r4, r5}
  43              	.LCFI0:
  44              		.cfi_def_cfa_offset 8
  45              		.loc 1 31 0
  46 0006 1D46     		mov	r5, r3
  47              		.cfi_offset 5, -4
  48              		.cfi_offset 4, -8
  49              	.LVL2:
  50              	.L3:
  51              		.loc 1 33 0
  52 0008 B1FBF2F4 		udiv	r4, r1, r2
  53              	.LVL3:
ARM GAS  /tmp/ccYD2xbR.s 			page 2


  54 000c 02FB1411 		mls	r1, r2, r4, r1
  55              	.LVL4:
  56              		.loc 1 34 0
  57 0010 01F1300C 		add	ip, r1, #48
  58              	.LVL5:
  59              		.loc 1 35 0
  60 0014 BCF1390F 		cmp	ip, #57
  61              		.loc 1 36 0
  62 0018 C8BF     		it	gt
  63 001a 01F1370C 		addgt	ip, r1, #55
  64              		.loc 1 37 0
  65 001e 5FFA8CFC 		uxtb	ip, ip
  66              	.LVL6:
  67 0022 05F801CD 		strb	ip, [r5, #-1]!
  68              		.loc 1 38 0
  69 0026 2146     		mov	r1, r4
  70 0028 002C     		cmp	r4, #0
  71 002a EDD1     		bne	.L3
  72              		.loc 1 27 0
  73 002c 5B1B     		subs	r3, r3, r5
  74 002e 13F0010F 		tst	r3, #1
  75 0032 0CD1     		bne	.L5
  76              		.loc 1 42 0
  77 0034 80F800C0 		strb	ip, [r0, #0]
  78 0038 0124     		movs	r4, #1
  79              	.LVL7:
  80              		.loc 1 43 0
  81 003a 15F804C0 		ldrb	ip, [r5, r4]	@ zero_extendqisi2
  82 003e 06E0     		b	.L5
  83              	.LVL8:
  84              	.L14:
  85 0040 15F802C0 		ldrb	ip, [r5, r2]	@ zero_extendqisi2
  86              		.loc 1 42 0
  87 0044 541C     		adds	r4, r2, #1
  88 0046 00F802C0 		strb	ip, [r0, r2]
  89              		.loc 1 43 0
  90 004a 15F804C0 		ldrb	ip, [r5, r4]	@ zero_extendqisi2
  91              	.LVL9:
  92              	.L5:
  93              		.loc 1 42 0
  94 004e 621C     		adds	r2, r4, #1
  95              	.LVL10:
  96              		.loc 1 43 0
  97 0050 9A42     		cmp	r2, r3
  98              		.loc 1 42 0
  99 0052 00F804C0 		strb	ip, [r0, r4]
 100              		.loc 1 43 0
 101 0056 F3D1     		bne	.L14
 102              		.loc 1 46 0
 103 0058 C018     		adds	r0, r0, r3
 104              	.LVL11:
 105 005a 30BC     		pop	{r4, r5}
 106 005c 7047     		bx	lr
 107              		.cfi_endproc
 108              	.LFE7:
 109              		.size	ltoa, .-ltoa
 110 005e 00BF     		.section	.text.chprintf,"ax",%progbits
ARM GAS  /tmp/ccYD2xbR.s 			page 3


 111              		.align	2
 112              		.p2align 4,,15
 113              		.global	chprintf
 114              		.thumb
 115              		.thumb_func
 116              		.type	chprintf, %function
 117              	chprintf:
 118              	.LFB8:
 119              		.loc 1 71 0
 120              		.cfi_startproc
 121              		@ args = 4, pretend = 12, frame = 24
 122              		@ frame_needed = 0, uses_anonymous_args = 1
 123              	.LVL12:
 124 0000 0EB4     		push	{r1, r2, r3}
 125              	.LCFI1:
 126              		.cfi_def_cfa_offset 12
 127 0002 2DE9F04F 		push	{r4, r5, r6, r7, r8, r9, sl, fp, lr}
 128              	.LCFI2:
 129              		.cfi_def_cfa_offset 48
 130 0006 86B0     		sub	sp, sp, #24
 131              	.LCFI3:
 132              		.cfi_def_cfa_offset 72
 133              		.loc 1 71 0
 134 0008 0FA9     		add	r1, sp, #60
 135              		.cfi_offset 14, -16
 136              		.cfi_offset 11, -20
 137              		.cfi_offset 10, -24
 138              		.cfi_offset 9, -28
 139              		.cfi_offset 8, -32
 140              		.cfi_offset 7, -36
 141              		.cfi_offset 6, -40
 142              		.cfi_offset 5, -44
 143              		.cfi_offset 4, -48
 144              		.cfi_offset 3, -4
 145              		.cfi_offset 2, -8
 146              		.cfi_offset 1, -12
 147 000a 51F8044B 		ldr	r4, [r1], #4
 148              		.loc 1 181 0
 149 000e 0DF1080B 		add	fp, sp, #8
 150              	.LVL13:
 151              		.loc 1 173 0
 152 0012 40F20002 		movw	r2, #:lower16:.LC0
 153 0016 C0F20002 		movt	r2, #:upper16:.LC0
 154              		.loc 1 163 0
 155 001a 0BF10103 		add	r3, fp, #1
 156              		.loc 1 79 0
 157 001e 0591     		str	r1, [sp, #20]
 158              		.loc 1 71 0
 159 0020 0546     		mov	r5, r0
 160              		.loc 1 173 0
 161 0022 0092     		str	r2, [sp, #0]
 162              		.loc 1 163 0
 163 0024 0193     		str	r3, [sp, #4]
 164              	.LVL14:
 165              	.L96:
 166              		.loc 1 81 0
 167 0026 2178     		ldrb	r1, [r4, #0]	@ zero_extendqisi2
ARM GAS  /tmp/ccYD2xbR.s 			page 4


 168              	.LVL15:
 169              		.loc 1 82 0
 170 0028 59B1     		cbz	r1, .L97
 171              	.L114:
 172              		.loc 1 81 0
 173 002a 0134     		adds	r4, r4, #1
 174              	.LVL16:
 175              		.loc 1 86 0
 176 002c 2529     		cmp	r1, #37
 177 002e 0DD0     		beq	.L17
 178              		.loc 1 87 0
 179 0030 2868     		ldr	r0, [r5, #0]
 180              	.LVL17:
 181 0032 4FF0FF32 		mov	r2, #-1
 182              	.LVL18:
 183 0036 0369     		ldr	r3, [r0, #16]
 184              	.LVL19:
 185 0038 2846     		mov	r0, r5
 186 003a 9847     		blx	r3
 187              	.LVL20:
 188              		.loc 1 81 0
 189 003c 2178     		ldrb	r1, [r4, #0]	@ zero_extendqisi2
 190              	.LVL21:
 191              		.loc 1 82 0
 192 003e 0029     		cmp	r1, #0
 193 0040 F3D1     		bne	.L114
 194              	.LVL22:
 195              	.L97:
 196              		.loc 1 206 0
 197 0042 06B0     		add	sp, sp, #24
 198 0044 BDE8F04F 		pop	{r4, r5, r6, r7, r8, r9, sl, fp, lr}
 199 0048 03B0     		add	sp, sp, #12
 200 004a 7047     		bx	lr
 201              	.LVL23:
 202              	.L17:
 203              		.loc 1 93 0
 204 004c 2378     		ldrb	r3, [r4, #0]	@ zero_extendqisi2
 205              	.LVL24:
 206 004e 2D2B     		cmp	r3, #45
 207 0050 00F08180 		beq	.L19
 208 0054 0026     		movs	r6, #0
 209              	.LVL25:
 210              	.L20:
 211              		.loc 1 98 0
 212 0056 2E2B     		cmp	r3, #46
 213 0058 79D0     		beq	.L21
 214 005a 2027     		movs	r7, #32
 215              	.LVL26:
 216              	.L22:
 217              		.loc 1 99 0
 218 005c 4FF00009 		mov	r9, #0
 219              	.LVL27:
 220 0060 08E0     		b	.L25
 221              	.LVL28:
 222              	.L115:
 223              		.loc 1 107 0
 224 0062 059B     		ldr	r3, [sp, #20]
ARM GAS  /tmp/ccYD2xbR.s 			page 5


 225              	.LVL29:
 226 0064 191D     		adds	r1, r3, #4
 227 0066 1A78     		ldrb	r2, [r3, #0]	@ zero_extendqisi2
 228              	.LVL30:
 229 0068 0591     		str	r1, [sp, #20]
 230              	.L23:
 231              		.loc 1 110 0
 232 006a 09EB8909 		add	r9, r9, r9, lsl #2
 233              	.LVL31:
 234 006e 2378     		ldrb	r3, [r4, #0]	@ zero_extendqisi2
 235              	.LVL32:
 236 0070 02EB4909 		add	r9, r2, r9, lsl #1
 237              	.LVL33:
 238              	.L25:
 239              		.loc 1 104 0
 240 0074 A3F13008 		sub	r8, r3, #48
 241 0078 5FFA88F2 		uxtb	r2, r8
 242              	.LVL34:
 243              		.loc 1 103 0
 244 007c 0134     		adds	r4, r4, #1
 245              		.loc 1 104 0
 246 007e 092A     		cmp	r2, #9
 247 0080 F3D9     		bls	.L23
 248              		.loc 1 106 0
 249 0082 2A2B     		cmp	r3, #42
 250 0084 EDD0     		beq	.L115
 251              	.LVL35:
 252              		.loc 1 113 0
 253 0086 2E2B     		cmp	r3, #46
 254 0088 4DD0     		beq	.L116
 255              		.loc 1 124 0
 256 008a 0021     		movs	r1, #0
 257              	.LVL36:
 258              	.L28:
 259              		.loc 1 127 0
 260 008c 6C2B     		cmp	r3, #108
 261 008e 14BF     		ite	ne
 262 0090 0020     		movne	r0, #0
 263 0092 0120     		moveq	r0, #1
 264              	.LVL37:
 265 0094 4C2B     		cmp	r3, #76
 266 0096 08BF     		it	eq
 267 0098 40F00100 		orreq	r0, r0, #1
 268 009c 0028     		cmp	r0, #0
 269 009e 3DD1     		bne	.L30
 270 00a0 1A46     		mov	r2, r3
 271              	.LVL38:
 272              	.L31:
 273              		.loc 1 132 0
 274 00a2 A2F14408 		sub	r8, r2, #68
 275 00a6 B8F1340F 		cmp	r8, #52
 276 00aa 00F27281 		bhi	.L33
 277 00ae DFE818F0 		tbh	[pc, r8, lsl #1]
 278              	.L44:
 279 00b2 6201     		.2byte	(.L34-.L44)/2
 280 00b4 7001     		.2byte	(.L33-.L44)/2
 281 00b6 7001     		.2byte	(.L33-.L44)/2
ARM GAS  /tmp/ccYD2xbR.s 			page 6


 282 00b8 7001     		.2byte	(.L33-.L44)/2
 283 00ba 7001     		.2byte	(.L33-.L44)/2
 284 00bc 7001     		.2byte	(.L33-.L44)/2
 285 00be 7001     		.2byte	(.L33-.L44)/2
 286 00c0 7001     		.2byte	(.L33-.L44)/2
 287 00c2 7001     		.2byte	(.L33-.L44)/2
 288 00c4 7001     		.2byte	(.L33-.L44)/2
 289 00c6 7001     		.2byte	(.L33-.L44)/2
 290 00c8 5E01     		.2byte	(.L35-.L44)/2
 291 00ca 7001     		.2byte	(.L33-.L44)/2
 292 00cc 7001     		.2byte	(.L33-.L44)/2
 293 00ce 7001     		.2byte	(.L33-.L44)/2
 294 00d0 7001     		.2byte	(.L33-.L44)/2
 295 00d2 7001     		.2byte	(.L33-.L44)/2
 296 00d4 5801     		.2byte	(.L36-.L44)/2
 297 00d6 7001     		.2byte	(.L33-.L44)/2
 298 00d8 7001     		.2byte	(.L33-.L44)/2
 299 00da 6001     		.2byte	(.L37-.L44)/2
 300 00dc 7001     		.2byte	(.L33-.L44)/2
 301 00de 7001     		.2byte	(.L33-.L44)/2
 302 00e0 7001     		.2byte	(.L33-.L44)/2
 303 00e2 7001     		.2byte	(.L33-.L44)/2
 304 00e4 7001     		.2byte	(.L33-.L44)/2
 305 00e6 7001     		.2byte	(.L33-.L44)/2
 306 00e8 7001     		.2byte	(.L33-.L44)/2
 307 00ea 7001     		.2byte	(.L33-.L44)/2
 308 00ec 7001     		.2byte	(.L33-.L44)/2
 309 00ee 7001     		.2byte	(.L33-.L44)/2
 310 00f0 4D01     		.2byte	(.L38-.L44)/2
 311 00f2 3D01     		.2byte	(.L39-.L44)/2
 312 00f4 7001     		.2byte	(.L33-.L44)/2
 313 00f6 7001     		.2byte	(.L33-.L44)/2
 314 00f8 7001     		.2byte	(.L33-.L44)/2
 315 00fa 7001     		.2byte	(.L33-.L44)/2
 316 00fc 7001     		.2byte	(.L33-.L44)/2
 317 00fe 7001     		.2byte	(.L33-.L44)/2
 318 0100 7001     		.2byte	(.L33-.L44)/2
 319 0102 7001     		.2byte	(.L33-.L44)/2
 320 0104 7001     		.2byte	(.L33-.L44)/2
 321 0106 7001     		.2byte	(.L33-.L44)/2
 322 0108 3B01     		.2byte	(.L40-.L44)/2
 323 010a 7001     		.2byte	(.L33-.L44)/2
 324 010c 7001     		.2byte	(.L33-.L44)/2
 325 010e 7001     		.2byte	(.L33-.L44)/2
 326 0110 0F01     		.2byte	(.L41-.L44)/2
 327 0112 7001     		.2byte	(.L33-.L44)/2
 328 0114 0D01     		.2byte	(.L42-.L44)/2
 329 0116 7001     		.2byte	(.L33-.L44)/2
 330 0118 7001     		.2byte	(.L33-.L44)/2
 331 011a 5900     		.2byte	(.L43-.L44)/2
 332              	.LVL39:
 333              	.L30:
 334              		.loc 1 129 0
 335 011c 2278     		ldrb	r2, [r4, #0]	@ zero_extendqisi2
 336              	.LVL40:
 337 011e F2B9     		cbnz	r2, .L32
 338 0120 1A46     		mov	r2, r3
ARM GAS  /tmp/ccYD2xbR.s 			page 7


 339 0122 0120     		movs	r0, #1
 340              	.LVL41:
 341 0124 BDE7     		b	.L31
 342              	.LVL42:
 343              	.L116:
 344              		.loc 1 113 0
 345 0126 0021     		movs	r1, #0
 346              	.LVL43:
 347              	.L29:
 348              		.loc 1 115 0
 349 0128 14F8013B 		ldrb	r3, [r4], #1	@ zero_extendqisi2
 350              	.LVL44:
 351              		.loc 1 122 0
 352 012c 01EB8100 		add	r0, r1, r1, lsl #2
 353              	.LVL45:
 354              		.loc 1 116 0
 355 0130 A3F1300A 		sub	sl, r3, #48
 356              	.LVL46:
 357 0134 5FFA8AF2 		uxtb	r2, sl
 358              	.LVL47:
 359 0138 092A     		cmp	r2, #9
 360 013a 05D9     		bls	.L27
 361              		.loc 1 118 0
 362 013c 2A2B     		cmp	r3, #42
 363 013e A5D1     		bne	.L28
 364              	.LVL48:
 365              		.loc 1 119 0
 366 0140 059B     		ldr	r3, [sp, #20]
 367              	.LVL49:
 368 0142 191D     		adds	r1, r3, #4
 369              	.LVL50:
 370 0144 1A78     		ldrb	r2, [r3, #0]	@ zero_extendqisi2
 371              	.LVL51:
 372 0146 0591     		str	r1, [sp, #20]
 373              	.LVL52:
 374              	.L27:
 375              		.loc 1 123 0
 376 0148 02EB4001 		add	r1, r2, r0, lsl #1
 377              	.LVL53:
 378              		.loc 1 124 0
 379 014c ECE7     		b	.L29
 380              	.LVL54:
 381              	.L21:
 382              		.loc 1 99 0
 383 014e 14F8013F 		ldrb	r3, [r4, #1]!	@ zero_extendqisi2
 384              	.LVL55:
 385 0152 3027     		movs	r7, #48
 386              	.LVL56:
 387 0154 82E7     		b	.L22
 388              	.LVL57:
 389              	.L19:
 390              		.loc 1 94 0
 391 0156 14F8013F 		ldrb	r3, [r4, #1]!	@ zero_extendqisi2
 392              	.LVL58:
 393 015a 0126     		movs	r6, #1
 394              	.LVL59:
 395 015c 7BE7     		b	.L20
ARM GAS  /tmp/ccYD2xbR.s 			page 8


 396              	.LVL60:
 397              	.L32:
 398              		.loc 1 130 0
 399 015e 0134     		adds	r4, r4, #1
 400              	.LVL61:
 401 0160 0120     		movs	r0, #1
 402              	.LVL62:
 403 0162 9EE7     		b	.L31
 404              	.LVL63:
 405              	.L43:
 406              		.loc 1 132 0
 407 0164 1022     		movs	r2, #16
 408              	.LVL64:
 409              	.L46:
 410              		.loc 1 148 0
 411 0166 0028     		cmp	r0, #0
 412 0168 40F0FC80 		bne	.L45
 413              		.loc 1 151 0
 414 016c 0598     		ldr	r0, [sp, #20]
 415              	.LVL65:
 416 016e 031D     		adds	r3, r0, #4
 417              	.LVL66:
 418 0170 0168     		ldr	r1, [r0, #0]
 419              	.LVL67:
 420 0172 0593     		str	r3, [sp, #20]
 421              	.LVL68:
 422              	.L48:
 423              		.loc 1 152 0
 424 0174 5846     		mov	r0, fp
 425 0176 FFF7FEFF 		bl	ltoa
 426              	.LVL69:
 427 017a D846     		mov	r8, fp
 428 017c CBEB000A 		rsb	sl, fp, r0
 429              	.LVL70:
 430              	.L49:
 431              		.loc 1 185 0
 432 0180 CAEB0909 		rsb	r9, sl, r9
 433              	.LVL71:
 434 0184 29EAE979 		bic	r9, r9, r9, asr #31
 435              	.LVL72:
 436              		.loc 1 187 0
 437 0188 002E     		cmp	r6, #0
 438 018a 3FD1     		bne	.L59
 439              		.loc 1 188 0
 440 018c C9F10009 		rsb	r9, r9, #0
 441              		.loc 1 189 0
 442 0190 B9F1000F 		cmp	r9, #0
 443 0194 3AD0     		beq	.L59
 444              		.loc 1 190 0
 445 0196 98F800E0 		ldrb	lr, [r8, #0]	@ zero_extendqisi2
 446 019a 302F     		cmp	r7, #48
 447 019c 14BF     		ite	ne
 448 019e 0026     		movne	r6, #0
 449 01a0 0126     		moveq	r6, #1
 450              	.LVL73:
 451 01a2 BEF12D0F 		cmp	lr, #45
 452 01a6 14BF     		ite	ne
ARM GAS  /tmp/ccYD2xbR.s 			page 9


 453 01a8 0026     		movne	r6, #0
 454 01aa 06F00106 		andeq	r6, r6, #1
 455 01ae 002E     		cmp	r6, #0
 456 01b0 40F0F580 		bne	.L117
 457              	.L60:
 458              		.loc 1 195 0
 459 01b4 2868     		ldr	r0, [r5, #0]
 460              	.LVL74:
 461 01b6 6FEA090C 		mvn	ip, r9
 462 01ba 0369     		ldr	r3, [r0, #16]
 463              	.LVL75:
 464 01bc 3946     		mov	r1, r7
 465              	.LVL76:
 466 01be 2846     		mov	r0, r5
 467 01c0 4FF0FF32 		mov	r2, #-1
 468              	.LVL77:
 469 01c4 0CF00106 		and	r6, ip, #1
 470 01c8 9847     		blx	r3
 471              		.loc 1 196 0
 472 01ca 19F10109 		adds	r9, r9, #1
 473 01ce 1DD0     		beq	.L59
 474 01d0 4EB1     		cbz	r6, .L67
 475              		.loc 1 195 0
 476 01d2 2B68     		ldr	r3, [r5, #0]
 477 01d4 2846     		mov	r0, r5
 478 01d6 1B69     		ldr	r3, [r3, #16]
 479 01d8 3946     		mov	r1, r7
 480 01da 4FF0FF32 		mov	r2, #-1
 481 01de 9847     		blx	r3
 482              		.loc 1 196 0
 483 01e0 19F10109 		adds	r9, r9, #1
 484 01e4 12D0     		beq	.L59
 485              	.L67:
 486              		.loc 1 195 0
 487 01e6 2A68     		ldr	r2, [r5, #0]
 488 01e8 3946     		mov	r1, r7
 489 01ea 1369     		ldr	r3, [r2, #16]
 490 01ec 2846     		mov	r0, r5
 491 01ee 4FF0FF32 		mov	r2, #-1
 492 01f2 9847     		blx	r3
 493 01f4 2968     		ldr	r1, [r5, #0]
 494              		.loc 1 196 0
 495 01f6 09F10109 		add	r9, r9, #1
 496              	.LVL78:
 497              		.loc 1 195 0
 498 01fa 0B69     		ldr	r3, [r1, #16]
 499 01fc 2846     		mov	r0, r5
 500 01fe 3946     		mov	r1, r7
 501 0200 4FF0FF32 		mov	r2, #-1
 502 0204 9847     		blx	r3
 503              		.loc 1 196 0
 504 0206 19F10109 		adds	r9, r9, #1
 505              	.LVL79:
 506 020a ECD1     		bne	.L67
 507              	.LVL80:
 508              	.L59:
 509              		.loc 1 198 0
ARM GAS  /tmp/ccYD2xbR.s 			page 10


 510 020c BAF1010A 		subs	sl, sl, #1
 511              	.LVL81:
 512 0210 31D4     		bmi	.L61
 513              		.loc 1 199 0
 514 0212 2968     		ldr	r1, [r5, #0]
 515              	.LVL82:
 516 0214 2846     		mov	r0, r5
 517              	.LVL83:
 518 0216 0E69     		ldr	r6, [r1, #16]
 519              	.LVL84:
 520 0218 4FF0FF32 		mov	r2, #-1
 521              	.LVL85:
 522 021c 98F80010 		ldrb	r1, [r8, #0]	@ zero_extendqisi2
 523 0220 B047     		blx	r6
 524              	.LVL86:
 525 0222 0AF00103 		and	r3, sl, #1
 526              		.loc 1 198 0
 527 0226 0126     		movs	r6, #1
 528 0228 BAF1010A 		subs	sl, sl, #1
 529              	.LVL87:
 530 022c 23D4     		bmi	.L61
 531 022e 5BB1     		cbz	r3, .L62
 532              		.loc 1 199 0
 533 0230 2868     		ldr	r0, [r5, #0]
 534 0232 18F80610 		ldrb	r1, [r8, r6]	@ zero_extendqisi2
 535 0236 4FF0FF32 		mov	r2, #-1
 536 023a 0669     		ldr	r6, [r0, #16]
 537 023c 2846     		mov	r0, r5
 538 023e B047     		blx	r6
 539              		.loc 1 198 0
 540 0240 0226     		movs	r6, #2
 541 0242 BAF1010A 		subs	sl, sl, #1
 542 0246 16D4     		bmi	.L61
 543              	.L62:
 544              		.loc 1 199 0
 545 0248 2A68     		ldr	r2, [r5, #0]
 546 024a 18F80610 		ldrb	r1, [r8, r6]	@ zero_extendqisi2
 547 024e 1369     		ldr	r3, [r2, #16]
 548 0250 2846     		mov	r0, r5
 549 0252 4FF0FF32 		mov	r2, #-1
 550 0256 9847     		blx	r3
 551 0258 2868     		ldr	r0, [r5, #0]
 552              		.loc 1 198 0
 553 025a 0136     		adds	r6, r6, #1
 554              		.loc 1 199 0
 555 025c 0369     		ldr	r3, [r0, #16]
 556 025e 18F80610 		ldrb	r1, [r8, r6]	@ zero_extendqisi2
 557              		.loc 1 198 0
 558 0262 0AF1FF3A 		add	sl, sl, #-1
 559              	.LVL88:
 560              		.loc 1 199 0
 561 0266 2846     		mov	r0, r5
 562 0268 4FF0FF32 		mov	r2, #-1
 563 026c 9847     		blx	r3
 564              		.loc 1 198 0
 565 026e 0136     		adds	r6, r6, #1
 566 0270 BAF1010A 		subs	sl, sl, #1
ARM GAS  /tmp/ccYD2xbR.s 			page 11


 567              	.LVL89:
 568 0274 E8D5     		bpl	.L62
 569              	.LVL90:
 570              	.L61:
 571              		.loc 1 201 0
 572 0276 B9F1000F 		cmp	r9, #0
 573 027a 3FF4D4AE 		beq	.L96
 574              		.loc 1 202 0
 575 027e 2968     		ldr	r1, [r5, #0]
 576              	.LVL91:
 577 0280 09F1FF39 		add	r9, r9, #-1
 578              	.LVL92:
 579 0284 0E69     		ldr	r6, [r1, #16]
 580              	.LVL93:
 581 0286 2846     		mov	r0, r5
 582              	.LVL94:
 583 0288 3946     		mov	r1, r7
 584 028a 4FF0FF32 		mov	r2, #-1
 585              	.LVL95:
 586 028e B047     		blx	r6
 587              	.LVL96:
 588 0290 09F00103 		and	r3, r9, #1
 589              		.loc 1 201 0
 590 0294 4E46     		mov	r6, r9
 591              	.LVL97:
 592 0296 B9F1000F 		cmp	r9, #0
 593 029a 3FF4C4AE 		beq	.L96
 594 029e 1BB1     		cbz	r3, .L66
 595              		.loc 1 202 0
 596 02a0 2968     		ldr	r1, [r5, #0]
 597 02a2 2846     		mov	r0, r5
 598 02a4 0B69     		ldr	r3, [r1, #16]
 599 02a6 0AE0     		b	.L110
 600              	.L66:
 601 02a8 2A68     		ldr	r2, [r5, #0]
 602 02aa 3946     		mov	r1, r7
 603 02ac 1369     		ldr	r3, [r2, #16]
 604 02ae 2846     		mov	r0, r5
 605 02b0 4FF0FF32 		mov	r2, #-1
 606 02b4 9847     		blx	r3
 607 02b6 2868     		ldr	r0, [r5, #0]
 608              		.loc 1 203 0
 609 02b8 013E     		subs	r6, r6, #1
 610              	.LVL98:
 611              		.loc 1 202 0
 612 02ba 0369     		ldr	r3, [r0, #16]
 613 02bc 2846     		mov	r0, r5
 614              	.LVL99:
 615              	.L110:
 616 02be 3946     		mov	r1, r7
 617 02c0 4FF0FF32 		mov	r2, #-1
 618 02c4 9847     		blx	r3
 619              		.loc 1 201 0
 620 02c6 013E     		subs	r6, r6, #1
 621 02c8 EED1     		bne	.L66
 622 02ca ACE6     		b	.L96
 623              	.LVL100:
ARM GAS  /tmp/ccYD2xbR.s 			page 12


 624              	.L42:
 625              		.loc 1 132 0
 626 02cc 0A22     		movs	r2, #10
 627              	.LVL101:
 628 02ce 4AE7     		b	.L46
 629              	.LVL102:
 630              	.L41:
 631              		.loc 1 173 0
 632 02d0 059F     		ldr	r7, [sp, #20]
 633              	.LVL103:
 634 02d2 DDF80080 		ldr	r8, [sp, #0]
 635              	.LVL104:
 636 02d6 3A68     		ldr	r2, [r7, #0]
 637              	.LVL105:
 638 02d8 381D     		adds	r0, r7, #4
 639              	.LVL106:
 640 02da 0590     		str	r0, [sp, #20]
 641 02dc 002A     		cmp	r2, #0
 642 02de 18BF     		it	ne
 643 02e0 9046     		movne	r8, r2
 644              	.LVL107:
 645              		.loc 1 177 0
 646 02e2 98F80030 		ldrb	r3, [r8, #0]	@ zero_extendqisi2
 647              	.LVL108:
 648              		.loc 1 175 0
 649 02e6 47F6FF7C 		movw	ip, #32767
 650 02ea 0029     		cmp	r1, #0
 651 02ec 08BF     		it	eq
 652 02ee 6146     		moveq	r1, ip
 653              	.LVL109:
 654              		.loc 1 177 0
 655 02f0 002B     		cmp	r3, #0
 656 02f2 60D0     		beq	.L118
 657 02f4 98F80100 		ldrb	r0, [r8, #1]	@ zero_extendqisi2
 658 02f8 4A1E     		subs	r2, r1, #1
 659              	.LVL110:
 660 02fa 02F00101 		and	r1, r2, #1
 661 02fe 08F10103 		add	r3, r8, #1
 662              	.LVL111:
 663 0302 68B1     		cbz	r0, .L99
 664 0304 013A     		subs	r2, r2, #1
 665              	.LVL112:
 666 0306 0BD4     		bmi	.L99
 667 0308 11B1     		cbz	r1, .L58
 668 030a 05E0     		b	.L112
 669              	.L119:
 670 030c 013A     		subs	r2, r2, #1
 671              	.LVL113:
 672 030e 07D4     		bmi	.L99
 673              	.L58:
 674 0310 13F8011F 		ldrb	r1, [r3, #1]!	@ zero_extendqisi2
 675 0314 013A     		subs	r2, r2, #1
 676              	.LVL114:
 677 0316 19B1     		cbz	r1, .L99
 678              	.LVL115:
 679              	.L112:
 680 0318 13F8017F 		ldrb	r7, [r3, #1]!	@ zero_extendqisi2
ARM GAS  /tmp/ccYD2xbR.s 			page 13


 681 031c 002F     		cmp	r7, #0
 682 031e F5D1     		bne	.L119
 683              	.L99:
 684 0320 C8EB030A 		rsb	sl, r8, r3
 685              	.LVL116:
 686 0324 2027     		movs	r7, #32
 687              	.LVL117:
 688 0326 2BE7     		b	.L49
 689              	.LVL118:
 690              	.L40:
 691              		.loc 1 132 0
 692 0328 0822     		movs	r2, #8
 693              	.LVL119:
 694 032a 1CE7     		b	.L46
 695              	.LVL120:
 696              	.L39:
 697              		.loc 1 157 0
 698 032c 18BB     		cbnz	r0, .L34
 699              		.loc 1 160 0
 700 032e 059A     		ldr	r2, [sp, #20]
 701              	.LVL121:
 702 0330 1168     		ldr	r1, [r2, #0]
 703              	.LVL122:
 704 0332 131D     		adds	r3, r2, #4
 705              	.LVL123:
 706              		.loc 1 161 0
 707 0334 0029     		cmp	r1, #0
 708              		.loc 1 160 0
 709 0336 0593     		str	r3, [sp, #20]
 710              		.loc 1 161 0
 711 0338 A8BF     		it	ge
 712 033a 5846     		movge	r0, fp
 713              	.LVL124:
 714 033c 23DB     		blt	.L120
 715              	.L53:
 716              		.loc 1 165 0
 717 033e 0A22     		movs	r2, #10
 718 0340 FFF7FEFF 		bl	ltoa
 719              	.LVL125:
 720 0344 D846     		mov	r8, fp
 721 0346 CBEB000A 		rsb	sl, fp, r0
 722              	.LVL126:
 723              		.loc 1 166 0
 724 034a 19E7     		b	.L49
 725              	.LVL127:
 726              	.L38:
 727              		.loc 1 169 0
 728 034c 059B     		ldr	r3, [sp, #20]
 729 034e 4FF0010A 		mov	sl, #1
 730              	.LVL128:
 731 0352 1F68     		ldr	r7, [r3, #0]
 732              	.LVL129:
 733 0354 191D     		adds	r1, r3, #4
 734              	.LVL130:
 735 0356 8DF80870 		strb	r7, [sp, #8]
 736 035a 0591     		str	r1, [sp, #20]
 737 035c 2027     		movs	r7, #32
ARM GAS  /tmp/ccYD2xbR.s 			page 14


 738              	.LVL131:
 739 035e D846     		mov	r8, fp
 740              		.loc 1 170 0
 741 0360 0EE7     		b	.L49
 742              	.LVL132:
 743              	.L36:
 744              		.loc 1 132 0
 745 0362 0A22     		movs	r2, #10
 746              	.LVL133:
 747              	.L45:
 748              		.loc 1 149 0
 749 0364 0598     		ldr	r0, [sp, #20]
 750              	.LVL134:
 751 0366 011D     		adds	r1, r0, #4
 752              	.LVL135:
 753 0368 0591     		str	r1, [sp, #20]
 754 036a 0168     		ldr	r1, [r0, #0]
 755              	.LVL136:
 756 036c 02E7     		b	.L48
 757              	.LVL137:
 758              	.L35:
 759              		.loc 1 132 0
 760 036e 0822     		movs	r2, #8
 761              	.LVL138:
 762 0370 F8E7     		b	.L45
 763              	.LVL139:
 764              	.L37:
 765              		.loc 1 201 0
 766 0372 1022     		movs	r2, #16
 767              	.LVL140:
 768 0374 F6E7     		b	.L45
 769              	.LVL141:
 770              	.L34:
 771              		.loc 1 158 0
 772 0376 059B     		ldr	r3, [sp, #20]
 773 0378 1968     		ldr	r1, [r3, #0]
 774              	.LVL142:
 775 037a 1A1D     		adds	r2, r3, #4
 776              	.LVL143:
 777              		.loc 1 161 0
 778 037c 0029     		cmp	r1, #0
 779              		.loc 1 158 0
 780 037e 0592     		str	r2, [sp, #20]
 781              		.loc 1 161 0
 782 0380 A8BF     		it	ge
 783 0382 5846     		movge	r0, fp
 784              	.LVL144:
 785 0384 DBDA     		bge	.L53
 786              	.L120:
 787              		.loc 1 162 0
 788 0386 2D20     		movs	r0, #45
 789              	.LVL145:
 790 0388 8DF80800 		strb	r0, [sp, #8]
 791              		.loc 1 163 0
 792 038c 4942     		negs	r1, r1
 793 038e 0198     		ldr	r0, [sp, #4]
 794              	.LVL146:
ARM GAS  /tmp/ccYD2xbR.s 			page 15


 795 0390 D5E7     		b	.L53
 796              	.LVL147:
 797              	.L33:
 798              		.loc 1 181 0
 799 0392 8DF80820 		strb	r2, [sp, #8]
 800 0396 4FF0010A 		mov	sl, #1
 801              	.LVL148:
 802 039a D846     		mov	r8, fp
 803 039c F0E6     		b	.L49
 804              	.LVL149:
 805              	.L117:
 806              		.loc 1 191 0
 807 039e 2A68     		ldr	r2, [r5, #0]
 808              	.LVL150:
 809 03a0 2846     		mov	r0, r5
 810              	.LVL151:
 811 03a2 1369     		ldr	r3, [r2, #16]
 812              	.LVL152:
 813 03a4 2D21     		movs	r1, #45
 814              	.LVL153:
 815 03a6 4FF0FF32 		mov	r2, #-1
 816 03aa 9847     		blx	r3
 817 03ac 08F10108 		add	r8, r8, #1
 818              		.loc 1 192 0
 819 03b0 0AF1FF3A 		add	sl, sl, #-1
 820 03b4 FEE6     		b	.L60
 821              	.LVL154:
 822              	.L118:
 823              		.loc 1 177 0
 824 03b6 9A46     		mov	sl, r3
 825              	.LVL155:
 826 03b8 2027     		movs	r7, #32
 827              	.LVL156:
 828 03ba E1E6     		b	.L49
 829              		.cfi_endproc
 830              	.LFE8:
 831              		.size	chprintf, .-chprintf
 832 03bc AFF30080 		.section	.rodata.str1.4,"aMS",%progbits,1
 833              		.align	2
 834              	.LC0:
 835 0000 286E756C 		.ascii	"(null)\000"
 835      6C2900
 836 0007 00       		.text
 837              	.Letext0: