ARM GAS  /tmp/ccfOPfh9.s 			page 1


   1              		.syntax unified
   2              		.cpu cortex-m3
   3              		.fpu softvfp
   4              		.eabi_attribute 20, 1
   5              		.eabi_attribute 21, 1
   6              		.eabi_attribute 23, 3
   7              		.eabi_attribute 24, 1
   8              		.eabi_attribute 25, 1
   9              		.eabi_attribute 26, 1
  10              		.eabi_attribute 30, 2
  11              		.eabi_attribute 18, 4
  12              		.thumb
  13              		.file	"shell.c"
  20 0000 1F030000 		.text
  20      0200D301 
  20      00000201 
  20      FB0E0D00 
  20      01010101 
  21              	.Ltext0:
  22              		.cfi_sections	.debug_frame
  23              		.section	.text.shellInit,"ax",%progbits
  24              		.align	2
  25              		.p2align 4,,15
  26              		.global	shellInit
  27              		.thumb
  28              		.thumb_func
  29              		.type	shellInit, %function
  30              	shellInit:
  31              	.LFB42:
  32              		.file 1 "../../../os/various/shell.c"
  33              		.loc 1 209 0
  34              		.cfi_startproc
  35              		@ args = 0, pretend = 0, frame = 0
  36              		@ frame_needed = 0, uses_anonymous_args = 0
  37              		@ link register save eliminated.
  38              		.loc 1 211 0
  39 0000 40F20003 		movw	r3, #:lower16:shell_terminated
  40 0004 C0F20003 		movt	r3, #:upper16:shell_terminated
  41 0008 1B60     		str	r3, [r3, #0]
  42              		.loc 1 212 0
  43 000a 7047     		bx	lr
  44              		.cfi_endproc
  45              	.LFE42:
  46              		.size	shellInit, .-shellInit
  47 000c AFF30080 		.section	.text.shellGetLine,"ax",%progbits
  48              		.align	2
  49              		.p2align 4,,15
  50              		.global	shellGetLine
  51              		.thumb
  52              		.thumb_func
  53              		.type	shellGetLine, %function
ARM GAS  /tmp/ccfOPfh9.s 			page 2


  54              	shellGetLine:
  55              	.LFB44:
  56              		.loc 1 240 0
  57              		.cfi_startproc
  58              		@ args = 0, pretend = 0, frame = 0
  59              		@ frame_needed = 0, uses_anonymous_args = 0
  60              	.LVL0:
  61              	.LBB15:
  62              		.loc 1 267 0
  63 0000 013A     		subs	r2, r2, #1
  64              	.LVL1:
  65              	.LBE15:
  66              		.loc 1 240 0
  67 0002 2DE9F041 		push	{r4, r5, r6, r7, r8, lr}
  68              	.LCFI0:
  69              		.cfi_def_cfa_offset 24
  70              		.loc 1 240 0
  71 0006 0F46     		mov	r7, r1
  72              		.cfi_offset 14, -4
  73              		.cfi_offset 8, -8
  74              		.cfi_offset 7, -12
  75              		.cfi_offset 6, -16
  76              		.cfi_offset 5, -20
  77              		.cfi_offset 4, -24
  78 0008 0546     		mov	r5, r0
  79              	.LBB16:
  80              		.loc 1 267 0
  81 000a 01EB0208 		add	r8, r1, r2
  82              	.LBE16:
  83              		.loc 1 240 0
  84 000e 0E46     		mov	r6, r1
  85              	.LVL2:
  86              	.L13:
  87              	.LBB17:
  88              		.loc 1 244 0
  89 0010 2968     		ldr	r1, [r5, #0]
  90 0012 2846     		mov	r0, r5
  91 0014 4B69     		ldr	r3, [r1, #20]
  92 0016 4FF0FF31 		mov	r1, #-1
  93 001a 9847     		blx	r3
  94 001c 80B2     		uxth	r0, r0
  95              	.LVL3:
  96              		.loc 1 245 0
  97 001e 04B2     		sxth	r4, r0
  98              	.LVL4:
  99 0020 002C     		cmp	r4, #0
 100 0022 2DDB     		blt	.L4
 101              		.loc 1 247 0
 102 0024 042C     		cmp	r4, #4
 103 0026 2ED0     		beq	.L15
 104              		.loc 1 251 0
 105 0028 082C     		cmp	r4, #8
 106 002a 10D0     		beq	.L16
 107              		.loc 1 260 0
 108 002c 0D2C     		cmp	r4, #13
 109 002e 34D0     		beq	.L17
 110              		.loc 1 265 0
ARM GAS  /tmp/ccfOPfh9.s 			page 3


 111 0030 1F2C     		cmp	r4, #31
 112 0032 EDDD     		ble	.L13
 113              		.loc 1 267 0
 114 0034 4645     		cmp	r6, r8
 115 0036 EBD2     		bcs	.L13
 116              		.loc 1 268 0
 117 0038 2968     		ldr	r1, [r5, #0]
 118 003a C4B2     		uxtb	r4, r0
 119              	.LVL5:
 120 003c 0B69     		ldr	r3, [r1, #16]
 121 003e 2846     		mov	r0, r5
 122              	.LVL6:
 123 0040 2146     		mov	r1, r4
 124 0042 4FF0FF32 		mov	r2, #-1
 125 0046 9847     		blx	r3
 126              		.loc 1 269 0
 127 0048 06F8014B 		strb	r4, [r6], #1
 128 004c E0E7     		b	.L13
 129              	.LVL7:
 130              	.L16:
 131              		.loc 1 252 0
 132 004e BE42     		cmp	r6, r7
 133 0050 DED0     		beq	.L13
 134              		.loc 1 253 0
 135 0052 2868     		ldr	r0, [r5, #0]
 136 0054 2146     		mov	r1, r4
 137 0056 0369     		ldr	r3, [r0, #16]
 138 0058 4FF0FF32 		mov	r2, #-1
 139 005c 2846     		mov	r0, r5
 140 005e 9847     		blx	r3
 141              		.loc 1 254 0
 142 0060 2A68     		ldr	r2, [r5, #0]
 143 0062 2021     		movs	r1, #32
 144 0064 1369     		ldr	r3, [r2, #16]
 145 0066 2846     		mov	r0, r5
 146 0068 4FF0FF32 		mov	r2, #-1
 147 006c 9847     		blx	r3
 148              		.loc 1 255 0
 149 006e 2868     		ldr	r0, [r5, #0]
 150 0070 2146     		mov	r1, r4
 151 0072 4FF0FF32 		mov	r2, #-1
 152 0076 0469     		ldr	r4, [r0, #16]
 153              	.LVL8:
 154 0078 2846     		mov	r0, r5
 155 007a A047     		blx	r4
 156              		.loc 1 256 0
 157 007c 013E     		subs	r6, r6, #1
 158 007e C7E7     		b	.L13
 159              	.LVL9:
 160              	.L4:
 161              		.loc 1 269 0
 162 0080 0120     		movs	r0, #1
 163              	.LBE17:
 164              		.loc 1 272 0
 165 0082 BDE8F081 		pop	{r4, r5, r6, r7, r8, pc}
 166              	.L15:
 167              	.LBB18:
ARM GAS  /tmp/ccfOPfh9.s 			page 4


 168              		.loc 1 248 0
 169 0086 40F20001 		movw	r1, #:lower16:.LC0
 170 008a 2846     		mov	r0, r5
 171 008c C0F20001 		movt	r1, #:upper16:.LC0
 172 0090 FFF7FEFF 		bl	chprintf
 173 0094 0120     		movs	r0, #1
 174              		.loc 1 249 0
 175 0096 BDE8F081 		pop	{r4, r5, r6, r7, r8, pc}
 176              	.L17:
 177              		.loc 1 261 0
 178 009a 40F20001 		movw	r1, #:lower16:.LC1
 179 009e 2846     		mov	r0, r5
 180 00a0 C0F20001 		movt	r1, #:upper16:.LC1
 181 00a4 FFF7FEFF 		bl	chprintf
 182              		.loc 1 262 0
 183 00a8 0020     		movs	r0, #0
 184 00aa 3070     		strb	r0, [r6, #0]
 185              		.loc 1 263 0
 186 00ac BDE8F081 		pop	{r4, r5, r6, r7, r8, pc}
 187              	.LBE18:
 188              		.cfi_endproc
 189              	.LFE44:
 190              		.size	shellGetLine, .-shellGetLine
 191              		.section	.text.cmd_systime,"ax",%progbits
 192              		.align	2
 193              		.p2align 4,,15
 194              		.thumb
 195              		.thumb_func
 196              		.type	cmd_systime, %function
 197              	cmd_systime:
 198              	.LFB39:
 199              		.loc 1 108 0
 200              		.cfi_startproc
 201              		@ args = 0, pretend = 0, frame = 0
 202              		@ frame_needed = 0, uses_anonymous_args = 0
 203              		@ link register save eliminated.
 204              	.LVL10:
 205              		.loc 1 111 0
 206 0000 0029     		cmp	r1, #0
 207 0002 09DD     		ble	.L19
 208              	.LBB19:
 209              	.LBB20:
 210              		.loc 1 70 0
 211 0004 40F20001 		movw	r1, #:lower16:.LC2
 212              	.LVL11:
 213 0008 40F20002 		movw	r2, #:lower16:.LC3
 214              	.LVL12:
 215 000c C0F20001 		movt	r1, #:upper16:.LC2
 216 0010 C0F20002 		movt	r2, #:upper16:.LC3
 217              	.LBE20:
 218              	.LBE19:
 219              		.loc 1 116 0
 220              	.LBB22:
 221              	.LBB21:
 222              		.loc 1 70 0
 223 0014 FFF7FEBF 		b	chprintf
 224              	.LVL13:
ARM GAS  /tmp/ccfOPfh9.s 			page 5


 225              	.L19:
 226              	.LBE21:
 227              	.LBE22:
 228              		.loc 1 115 0
 229 0018 40F20003 		movw	r3, #:lower16:vtlist
 230 001c C0F20003 		movt	r3, #:upper16:vtlist
 231 0020 DA68     		ldr	r2, [r3, #12]
 232              	.LVL14:
 233 0022 40F20001 		movw	r1, #:lower16:.LC4
 234              	.LVL15:
 235 0026 C0F20001 		movt	r1, #:upper16:.LC4
 236              		.loc 1 116 0
 237              		.loc 1 115 0
 238 002a FFF7FEBF 		b	chprintf
 239              	.LVL16:
 240              		.cfi_endproc
 241              	.LFE39:
 242              		.size	cmd_systime, .-cmd_systime
 243 002e 00BF     		.section	.text.cmd_info,"ax",%progbits
 244              		.align	2
 245              		.p2align 4,,15
 246              		.thumb
 247              		.thumb_func
 248              		.type	cmd_info, %function
 249              	cmd_info:
 250              	.LFB38:
 251              		.loc 1 81 0
 252              		.cfi_startproc
 253              		@ args = 0, pretend = 0, frame = 0
 254              		@ frame_needed = 0, uses_anonymous_args = 0
 255              	.LVL17:
 256              		.loc 1 84 0
 257 0000 0029     		cmp	r1, #0
 258              		.loc 1 81 0
 259 0002 10B5     		push	{r4, lr}
 260              	.LCFI1:
 261              		.cfi_def_cfa_offset 8
 262              		.loc 1 81 0
 263 0004 0446     		mov	r4, r0
 264              		.cfi_offset 14, -4
 265              		.cfi_offset 4, -8
 266              		.loc 1 84 0
 267 0006 0BDD     		ble	.L22
 268              	.LVL18:
 269              	.LBB23:
 270              	.LBB24:
 271              		.loc 1 70 0
 272 0008 40F20001 		movw	r1, #:lower16:.LC2
 273              	.LVL19:
 274 000c 40F20002 		movw	r2, #:lower16:.LC5
 275              	.LVL20:
 276 0010 C0F20001 		movt	r1, #:upper16:.LC2
 277 0014 C0F20002 		movt	r2, #:upper16:.LC5
 278              	.LBE24:
 279              	.LBE23:
 280              		.loc 1 106 0
 281 0018 BDE81040 		pop	{r4, lr}
ARM GAS  /tmp/ccfOPfh9.s 			page 6


 282              	.LBB26:
 283              	.LBB25:
 284              		.loc 1 70 0
 285 001c FFF7FEBF 		b	chprintf
 286              	.LVL21:
 287              	.L22:
 288              	.LBE25:
 289              	.LBE26:
 290              		.loc 1 89 0
 291 0020 40F20001 		movw	r1, #:lower16:.LC6
 292              	.LVL22:
 293 0024 40F20002 		movw	r2, #:lower16:.LC7
 294              	.LVL23:
 295 0028 C0F20001 		movt	r1, #:upper16:.LC6
 296 002c C0F20002 		movt	r2, #:upper16:.LC7
 297 0030 FFF7FEFF 		bl	chprintf
 298              		.loc 1 91 0
 299 0034 40F20001 		movw	r1, #:lower16:.LC8
 300 0038 40F20002 		movw	r2, #:lower16:.LC9
 301 003c 2046     		mov	r0, r4
 302 003e C0F20001 		movt	r1, #:upper16:.LC8
 303 0042 C0F20002 		movt	r2, #:upper16:.LC9
 304 0046 FFF7FEFF 		bl	chprintf
 305              		.loc 1 93 0
 306 004a 40F20001 		movw	r1, #:lower16:.LC10
 307 004e 40F20002 		movw	r2, #:lower16:.LC11
 308 0052 2046     		mov	r0, r4
 309 0054 C0F20001 		movt	r1, #:upper16:.LC10
 310 0058 C0F20002 		movt	r2, #:upper16:.LC11
 311 005c FFF7FEFF 		bl	chprintf
 312              		.loc 1 95 0
 313 0060 40F20001 		movw	r1, #:lower16:.LC12
 314 0064 40F20002 		movw	r2, #:lower16:.LC13
 315 0068 2046     		mov	r0, r4
 316 006a C0F20001 		movt	r1, #:upper16:.LC12
 317 006e C0F20002 		movt	r2, #:upper16:.LC13
 318 0072 FFF7FEFF 		bl	chprintf
 319              		.loc 1 98 0
 320 0076 40F20001 		movw	r1, #:lower16:.LC14
 321 007a 40F20002 		movw	r2, #:lower16:.LC15
 322 007e 2046     		mov	r0, r4
 323 0080 C0F20001 		movt	r1, #:upper16:.LC14
 324 0084 C0F20002 		movt	r2, #:upper16:.LC15
 325 0088 FFF7FEFF 		bl	chprintf
 326              		.loc 1 101 0
 327 008c 40F20001 		movw	r1, #:lower16:.LC16
 328 0090 40F20002 		movw	r2, #:lower16:.LC17
 329 0094 2046     		mov	r0, r4
 330 0096 C0F20001 		movt	r1, #:upper16:.LC16
 331 009a C0F20002 		movt	r2, #:upper16:.LC17
 332 009e FFF7FEFF 		bl	chprintf
 333              		.loc 1 104 0
 334 00a2 40F20001 		movw	r1, #:lower16:.LC18
 335 00a6 40F20002 		movw	r2, #:lower16:.LC19
 336 00aa 2046     		mov	r0, r4
 337 00ac C0F20001 		movt	r1, #:upper16:.LC18
 338 00b0 C0F20002 		movt	r2, #:upper16:.LC19
ARM GAS  /tmp/ccfOPfh9.s 			page 7


 339              		.loc 1 106 0
 340 00b4 BDE81040 		pop	{r4, lr}
 341              		.loc 1 104 0
 342 00b8 FFF7FEBF 		b	chprintf
 343              		.cfi_endproc
 344              	.LFE38:
 345              		.size	cmd_info, .-cmd_info
 346 00bc AFF30080 		.section	.text.shellCreate,"ax",%progbits
 347              		.align	2
 348              		.p2align 4,,15
 349              		.global	shellCreate
 350              		.thumb
 351              		.thumb_func
 352              		.type	shellCreate, %function
 353              	shellCreate:
 354              	.LFB43:
 355              		.loc 1 224 0
 356              		.cfi_startproc
 357              		@ args = 0, pretend = 0, frame = 0
 358              		@ frame_needed = 0, uses_anonymous_args = 0
 359              	.LVL24:
 360 0000 00B5     		push	{lr}
 361              	.LCFI2:
 362              		.cfi_def_cfa_offset 4
 363              		.loc 1 226 0
 364 0002 40F20003 		movw	r3, #:lower16:shell_thread
 365              		.loc 1 224 0
 366 0006 83B0     		sub	sp, sp, #12
 367              	.LCFI3:
 368              		.cfi_def_cfa_offset 16
 369              		.loc 1 226 0
 370 0008 0090     		str	r0, [sp, #0]
 371 000a C0F20003 		movt	r3, #:upper16:shell_thread
 372 000e 0020     		movs	r0, #0
 373              	.LVL25:
 374              		.cfi_offset 14, -4
 375 0010 FFF7FEFF 		bl	chThdCreateFromHeap
 376              	.LVL26:
 377              		.loc 1 227 0
 378 0014 03B0     		add	sp, sp, #12
 379 0016 00BD     		pop	{pc}
 380              		.cfi_endproc
 381              	.LFE43:
 382              		.size	shellCreate, .-shellCreate
 383 0018 AFF30080 		.section	.text.cmdexec,"ax",%progbits
 383      AFF30080 
 384              		.align	2
 385              		.p2align 4,,15
 386              		.thumb
 387              		.thumb_func
 388              		.type	cmdexec, %function
 389              	cmdexec:
 390              	.LFB40:
 391              		.loc 1 128 0
 392              		.cfi_startproc
 393              		@ args = 4, pretend = 0, frame = 0
 394              		@ frame_needed = 0, uses_anonymous_args = 0
ARM GAS  /tmp/ccfOPfh9.s 			page 8


 395              	.LVL27:
 396 0000 2DE9F041 		push	{r4, r5, r6, r7, r8, lr}
 397              	.LCFI4:
 398              		.cfi_def_cfa_offset 24
 399              		.loc 1 128 0
 400 0004 0646     		mov	r6, r0
 401              		.cfi_offset 14, -4
 402              		.cfi_offset 8, -8
 403              		.cfi_offset 7, -12
 404              		.cfi_offset 6, -16
 405              		.cfi_offset 5, -20
 406              		.cfi_offset 4, -24
 407              		.loc 1 130 0
 408 0006 0068     		ldr	r0, [r0, #0]
 409              	.LVL28:
 410              		.loc 1 128 0
 411 0008 0C46     		mov	r4, r1
 412 000a 1546     		mov	r5, r2
 413 000c 9846     		mov	r8, r3
 414              		.loc 1 130 0
 415 000e 90B1     		cbz	r0, .L27
 416              	.LVL29:
 417 0010 3746     		mov	r7, r6
 418 0012 02E0     		b	.L30
 419              	.LVL30:
 420              	.L28:
 421 0014 57F8080F 		ldr	r0, [r7, #8]!
 422 0018 68B1     		cbz	r0, .L27
 423              	.LVL31:
 424              	.L30:
 425              		.loc 1 131 0
 426 001a 2946     		mov	r1, r5
 427 001c FFF7FEFF 		bl	strcasecmp
 428 0020 0646     		mov	r6, r0
 429              	.LVL32:
 430 0022 0028     		cmp	r0, #0
 431 0024 F6D1     		bne	.L28
 432              		.loc 1 132 0
 433 0026 2046     		mov	r0, r4
 434 0028 7D68     		ldr	r5, [r7, #4]
 435              	.LVL33:
 436 002a 4146     		mov	r1, r8
 437 002c 069A     		ldr	r2, [sp, #24]
 438 002e A847     		blx	r5
 439 0030 3046     		mov	r0, r6
 440              		.loc 1 133 0
 441 0032 BDE8F081 		pop	{r4, r5, r6, r7, r8, pc}
 442              	.LVL34:
 443              	.L27:
 444              		.loc 1 130 0
 445 0036 0120     		movs	r0, #1
 446              		.loc 1 138 0
 447 0038 BDE8F081 		pop	{r4, r5, r6, r7, r8, pc}
 448              		.cfi_endproc
 449              	.LFE40:
 450              		.size	cmdexec, .-cmdexec
 451 003c AFF30080 		.section	.text.shell_thread,"ax",%progbits
ARM GAS  /tmp/ccfOPfh9.s 			page 9


 452              		.align	2
 453              		.p2align 4,,15
 454              		.thumb
 455              		.thumb_func
 456              		.type	shell_thread, %function
 457              	shell_thread:
 458              	.LFB41:
 459              		.loc 1 148 0
 460              		.cfi_startproc
 461              		@ args = 0, pretend = 0, frame = 88
 462              		@ frame_needed = 0, uses_anonymous_args = 0
 463              	.LVL35:
 464 0000 2DE9F047 		push	{r4, r5, r6, r7, r8, r9, sl, lr}
 465              	.LCFI5:
 466              		.cfi_def_cfa_offset 32
 467              		.loc 1 151 0
 468 0004 0468     		ldr	r4, [r0, #0]
 469              		.cfi_offset 14, -4
 470              		.cfi_offset 10, -8
 471              		.cfi_offset 9, -12
 472              		.cfi_offset 8, -16
 473              		.cfi_offset 7, -20
 474              		.cfi_offset 6, -24
 475              		.cfi_offset 5, -28
 476              		.cfi_offset 4, -32
 477              	.LVL36:
 478              		.loc 1 156 0
 479 0006 40F20001 		movw	r1, #:lower16:.LC20
 480              		.loc 1 148 0
 481 000a 0346     		mov	r3, r0
 482 000c 98B0     		sub	sp, sp, #96
 483              	.LCFI6:
 484              		.cfi_def_cfa_offset 128
 485              		.loc 1 156 0
 486 000e C0F20001 		movt	r1, #:upper16:.LC20
 487 0012 2046     		mov	r0, r4
 488              	.LVL37:
 489              		.loc 1 152 0
 490 0014 D3F804A0 		ldr	sl, [r3, #4]
 491              	.LVL38:
 492              		.loc 1 156 0
 493 0018 FFF7FEFF 		bl	chprintf
 494              	.LVL39:
 495 001c 02AD     		add	r5, sp, #8
 496              	.LVL40:
 497              	.L56:
 498              		.loc 1 158 0
 499 001e 40F20001 		movw	r1, #:lower16:.LC21
 500 0022 C0F20001 		movt	r1, #:upper16:.LC21
 501 0026 2046     		mov	r0, r4
 502 0028 FFF7FEFF 		bl	chprintf
 503              		.loc 1 159 0
 504 002c 2046     		mov	r0, r4
 505 002e 2946     		mov	r1, r5
 506 0030 4022     		movs	r2, #64
 507 0032 FFF7FEFF 		bl	shellGetLine
 508 0036 8146     		mov	r9, r0
ARM GAS  /tmp/ccfOPfh9.s 			page 10


 509 0038 0028     		cmp	r0, #0
 510 003a 4DD1     		bne	.L57
 511              		.loc 1 163 0
 512 003c 17AF     		add	r7, sp, #92
 513 003e 40F20001 		movw	r1, #:lower16:.LANCHOR0
 514 0042 C0F20001 		movt	r1, #:upper16:.LANCHOR0
 515 0046 3A46     		mov	r2, r7
 516 0048 2846     		mov	r0, r5
 517 004a FFF7FEFF 		bl	strtok_r
 518              		.loc 1 166 0
 519 004e 40F20001 		movw	r1, #:lower16:.LANCHOR0
 520              		.loc 1 163 0
 521 0052 0646     		mov	r6, r0
 522              		.loc 1 166 0
 523 0054 C0F20001 		movt	r1, #:upper16:.LANCHOR0
 524 0058 4846     		mov	r0, r9
 525 005a 3A46     		mov	r2, r7
 526 005c FFF7FEFF 		bl	strtok_r
 527 0060 0346     		mov	r3, r0
 528              	.LVL41:
 529 0062 0028     		cmp	r0, #0
 530 0064 4DD0     		beq	.L58
 531 0066 40F20001 		movw	r1, #:lower16:.LANCHOR0
 532 006a C0F20001 		movt	r1, #:upper16:.LANCHOR0
 533 006e 4846     		mov	r0, r9
 534 0070 3A46     		mov	r2, r7
 535              		.loc 1 172 0
 536 0072 1293     		str	r3, [sp, #72]
 537              		.loc 1 166 0
 538 0074 FFF7FEFF 		bl	strtok_r
 539              	.LVL42:
 540 0078 0346     		mov	r3, r0
 541              	.LVL43:
 542 007a 0028     		cmp	r0, #0
 543 007c 78D0     		beq	.L59
 544 007e 40F20001 		movw	r1, #:lower16:.LANCHOR0
 545 0082 C0F20001 		movt	r1, #:upper16:.LANCHOR0
 546 0086 4846     		mov	r0, r9
 547 0088 3A46     		mov	r2, r7
 548              		.loc 1 172 0
 549 008a 1393     		str	r3, [sp, #76]
 550              		.loc 1 166 0
 551 008c FFF7FEFF 		bl	strtok_r
 552              	.LVL44:
 553 0090 0346     		mov	r3, r0
 554              	.LVL45:
 555 0092 0028     		cmp	r0, #0
 556 0094 70D0     		beq	.L60
 557 0096 40F20001 		movw	r1, #:lower16:.LANCHOR0
 558 009a C0F20001 		movt	r1, #:upper16:.LANCHOR0
 559 009e 4846     		mov	r0, r9
 560 00a0 3A46     		mov	r2, r7
 561              		.loc 1 172 0
 562 00a2 1493     		str	r3, [sp, #80]
 563              		.loc 1 166 0
 564 00a4 FFF7FEFF 		bl	strtok_r
 565              	.LVL46:
ARM GAS  /tmp/ccfOPfh9.s 			page 11


 566 00a8 0346     		mov	r3, r0
 567              	.LVL47:
 568 00aa 0028     		cmp	r0, #0
 569 00ac 68D0     		beq	.L61
 570 00ae 40F20001 		movw	r1, #:lower16:.LANCHOR0
 571 00b2 C0F20001 		movt	r1, #:upper16:.LANCHOR0
 572 00b6 3A46     		mov	r2, r7
 573 00b8 4846     		mov	r0, r9
 574              		.loc 1 172 0
 575 00ba 1593     		str	r3, [sp, #84]
 576              		.loc 1 166 0
 577 00bc FFF7FEFF 		bl	strtok_r
 578              	.LVL48:
 579 00c0 0028     		cmp	r0, #0
 580 00c2 61D0     		beq	.L41
 581              		.loc 1 168 0
 582 00c4 40F20001 		movw	r1, #:lower16:.LC24
 583 00c8 C0F20001 		movt	r1, #:upper16:.LC24
 584 00cc 2046     		mov	r0, r4
 585 00ce FFF7FEFF 		bl	chprintf
 586              		.loc 1 174 0
 587 00d2 CDF85890 		str	r9, [sp, #88]
 588 00d6 A2E7     		b	.L56
 589              	.LVL49:
 590              	.L57:
 591              		.loc 1 160 0
 592 00d8 40F20001 		movw	r1, #:lower16:.LC22
 593 00dc 2046     		mov	r0, r4
 594 00de C0F20001 		movt	r1, #:upper16:.LC22
 595 00e2 FFF7FEFF 		bl	chprintf
 596              	.L35:
 597              	.LBB27:
 598              		.loc 1 201 0
 599 00e6 2023     		movs	r3, #32
 600              	.LVL50:
 601              	@ 201 "../../../os/various/shell.c" 1
 602 00e8 83F31188 		msr     BASEPRI, r3
 603              	@ 0 "" 2
 604              		.thumb
 605              	.LBE27:
 606              		.loc 1 202 0
 607 00ec 40F20000 		movw	r0, #:lower16:shell_terminated
 608 00f0 C0F20000 		movt	r0, #:upper16:shell_terminated
 609 00f4 0021     		movs	r1, #0
 610 00f6 FFF7FEFF 		bl	chEvtBroadcastFlagsI
 611              	.LVL51:
 612              		.loc 1 204 0
 613 00fa 0020     		movs	r0, #0
 614 00fc 18B0     		add	sp, sp, #96
 615 00fe BDE8F087 		pop	{r4, r5, r6, r7, r8, r9, sl, pc}
 616              	.LVL52:
 617              	.L58:
 618              		.loc 1 166 0
 619 0102 8046     		mov	r8, r0
 620              	.LVL53:
 621              	.L37:
 622              		.loc 1 174 0
ARM GAS  /tmp/ccfOPfh9.s 			page 12


 623 0104 18A9     		add	r1, sp, #96
 624 0106 01EB8300 		add	r0, r1, r3, lsl #2
 625              	.LVL54:
 626 010a 0022     		movs	r2, #0
 627 010c 40F8182C 		str	r2, [r0, #-24]
 628              		.loc 1 175 0
 629 0110 002E     		cmp	r6, #0
 630 0112 84D0     		beq	.L56
 631              	.LVL55:
 632              		.loc 1 176 0
 633 0114 40F20001 		movw	r1, #:lower16:.LC25
 634 0118 C0F20001 		movt	r1, #:upper16:.LC25
 635 011c 3046     		mov	r0, r6
 636 011e FFF7FEFF 		bl	strcasecmp
 637              	.LVL56:
 638 0122 70B9     		cbnz	r0, .L43
 639              		.loc 1 177 0
 640 0124 B8F1000F 		cmp	r8, #0
 641 0128 DDD0     		beq	.L35
 642              	.LBB28:
 643              	.LBB29:
 644              		.loc 1 70 0
 645 012a 40F20001 		movw	r1, #:lower16:.LC2
 646 012e 40F20002 		movw	r2, #:lower16:.LC25
 647 0132 C0F20001 		movt	r1, #:upper16:.LC2
 648 0136 C0F20002 		movt	r2, #:upper16:.LC25
 649 013a 2046     		mov	r0, r4
 650 013c FFF7FEFF 		bl	chprintf
 651              	.LBE29:
 652              	.LBE28:
 653              		.loc 1 179 0
 654 0140 6DE7     		b	.L56
 655              	.L43:
 656              		.loc 1 183 0
 657 0142 40F20001 		movw	r1, #:lower16:.LC26
 658 0146 C0F20001 		movt	r1, #:upper16:.LC26
 659 014a 3046     		mov	r0, r6
 660 014c FFF7FEFF 		bl	strcasecmp
 661 0150 F0B9     		cbnz	r0, .L44
 662              		.loc 1 184 0
 663 0152 B8F1000F 		cmp	r8, #0
 664 0156 46D0     		beq	.L45
 665              	.LBB30:
 666              	.LBB31:
 667              		.loc 1 70 0
 668 0158 40F20001 		movw	r1, #:lower16:.LC2
 669 015c 40F20002 		movw	r2, #:lower16:.LC26
 670 0160 C0F20001 		movt	r1, #:upper16:.LC2
 671 0164 C0F20002 		movt	r2, #:upper16:.LC26
 672 0168 2046     		mov	r0, r4
 673 016a FFF7FEFF 		bl	chprintf
 674              	.LBE31:
 675              	.LBE30:
 676              		.loc 1 186 0
 677 016e 56E7     		b	.L56
 678              	.LVL57:
 679              	.L59:
ARM GAS  /tmp/ccfOPfh9.s 			page 13


 680              		.loc 1 166 0
 681 0170 4FF00108 		mov	r8, #1
 682 0174 4346     		mov	r3, r8
 683              	.LVL58:
 684 0176 C5E7     		b	.L37
 685              	.LVL59:
 686              	.L60:
 687 0178 4FF00208 		mov	r8, #2
 688 017c 4346     		mov	r3, r8
 689              	.LVL60:
 690 017e C1E7     		b	.L37
 691              	.LVL61:
 692              	.L61:
 693 0180 4FF00308 		mov	r8, #3
 694 0184 4346     		mov	r3, r8
 695              	.LVL62:
 696 0186 BDE7     		b	.L37
 697              	.LVL63:
 698              	.L41:
 699              		.loc 1 174 0
 700 0188 4FF00408 		mov	r8, #4
 701 018c 4346     		mov	r3, r8
 702 018e B9E7     		b	.L37
 703              	.LVL64:
 704              	.L44:
 705              		.loc 1 194 0
 706 0190 40F20000 		movw	r0, #:lower16:.LANCHOR1
 707 0194 12AF     		add	r7, sp, #72
 708 0196 C0F20000 		movt	r0, #:upper16:.LANCHOR1
 709 019a 2146     		mov	r1, r4
 710 019c 3246     		mov	r2, r6
 711 019e 4346     		mov	r3, r8
 712 01a0 0097     		str	r7, [sp, #0]
 713 01a2 FFF7FEFF 		bl	cmdexec
 714 01a6 0028     		cmp	r0, #0
 715 01a8 3FF439AF 		beq	.L56
 716 01ac BAF1000F 		cmp	sl, #0
 717 01b0 09D0     		beq	.L50
 718              		.loc 1 195 0
 719 01b2 4346     		mov	r3, r8
 720 01b4 5046     		mov	r0, sl
 721 01b6 2146     		mov	r1, r4
 722 01b8 3246     		mov	r2, r6
 723 01ba 0097     		str	r7, [sp, #0]
 724 01bc FFF7FEFF 		bl	cmdexec
 725              		.loc 1 194 0
 726 01c0 0028     		cmp	r0, #0
 727 01c2 3FF42CAF 		beq	.L56
 728              	.L50:
 729              		.loc 1 196 0
 730 01c6 40F20001 		movw	r1, #:lower16:.LC29
 731 01ca 2046     		mov	r0, r4
 732 01cc C0F20001 		movt	r1, #:upper16:.LC29
 733 01d0 3246     		mov	r2, r6
 734 01d2 FFF7FEFF 		bl	chprintf
 735              		.loc 1 197 0
 736 01d6 40F20001 		movw	r1, #:lower16:.LC30
ARM GAS  /tmp/ccfOPfh9.s 			page 14


 737 01da 2046     		mov	r0, r4
 738 01dc C0F20001 		movt	r1, #:upper16:.LC30
 739 01e0 FFF7FEFF 		bl	chprintf
 740 01e4 1BE7     		b	.L56
 741              	.L45:
 742              		.loc 1 188 0
 743 01e6 40F20001 		movw	r1, #:lower16:.LC27
 744              	.LBB32:
 745              	.LBB34:
 746              		.loc 1 75 0
 747 01ea 40F20006 		movw	r6, #:lower16:.LANCHOR1
 748              	.LVL65:
 749              	.LBE34:
 750              	.LBE32:
 751              		.loc 1 188 0
 752 01ee C0F20001 		movt	r1, #:upper16:.LC27
 753 01f2 2046     		mov	r0, r4
 754              	.LBB36:
 755              	.LBB33:
 756              		.loc 1 75 0
 757 01f4 C0F20006 		movt	r6, #:upper16:.LANCHOR1
 758              	.LBE33:
 759              	.LBE36:
 760              		.loc 1 188 0
 761 01f8 FFF7FEFF 		bl	chprintf
 762              	.LBB37:
 763              	.LBB35:
 764              		.loc 1 75 0
 765 01fc 3268     		ldr	r2, [r6, #0]
 766 01fe 52B1     		cbz	r2, .L46
 767              	.L47:
 768              		.loc 1 76 0
 769 0200 40F20001 		movw	r1, #:lower16:.LC28
 770 0204 C0F20001 		movt	r1, #:upper16:.LC28
 771 0208 2046     		mov	r0, r4
 772 020a FFF7FEFF 		bl	chprintf
 773              		.loc 1 75 0
 774 020e 56F8082F 		ldr	r2, [r6, #8]!
 775 0212 002A     		cmp	r2, #0
 776 0214 F4D1     		bne	.L47
 777              	.L46:
 778              	.LBE35:
 779              	.LBE37:
 780              		.loc 1 190 0
 781 0216 BAF1000F 		cmp	sl, #0
 782 021a 0ED0     		beq	.L48
 783              	.LBB38:
 784              	.LBB39:
 785              		.loc 1 75 0
 786 021c DAF80020 		ldr	r2, [sl, #0]
 787 0220 5AB1     		cbz	r2, .L48
 788 0222 5646     		mov	r6, sl
 789              	.L49:
 790              		.loc 1 76 0
 791 0224 40F20001 		movw	r1, #:lower16:.LC28
 792 0228 C0F20001 		movt	r1, #:upper16:.LC28
 793 022c 2046     		mov	r0, r4
ARM GAS  /tmp/ccfOPfh9.s 			page 15


 794 022e FFF7FEFF 		bl	chprintf
 795              		.loc 1 75 0
 796 0232 56F8082F 		ldr	r2, [r6, #8]!
 797 0236 002A     		cmp	r2, #0
 798 0238 F4D1     		bne	.L49
 799              	.L48:
 800              	.LBE39:
 801              	.LBE38:
 802              		.loc 1 192 0
 803 023a 40F20001 		movw	r1, #:lower16:.LC1
 804 023e C0F20001 		movt	r1, #:upper16:.LC1
 805 0242 2046     		mov	r0, r4
 806 0244 FFF7FEFF 		bl	chprintf
 807 0248 E9E6     		b	.L56
 808              		.cfi_endproc
 809              	.LFE41:
 810              		.size	shell_thread, .-shell_thread
 811              		.comm	shell_terminated,4,4
 812 024a 00BFAFF3 		.section	.rodata
 812      0080
 813              		.align	2
 814              		.set	.LANCHOR0,. + 0
 815              	.LC23:
 816 0000 20003900 		.ascii	" \0009\000"
 817              		.section	.data.local_commands,"aw",%progbits
 818              		.align	2
 819              		.set	.LANCHOR1,. + 0
 820              		.type	local_commands, %object
 821              		.size	local_commands, 24
 822              	local_commands:
 823 0000 24000000 		.word	.LC5
 824 0004 00000000 		.word	cmd_info
 825 0008 14000000 		.word	.LC3
 826 000c 00000000 		.word	cmd_systime
 827 0010 00000000 		.word	0
 828 0014 00000000 		.word	0
 829              		.section	.rodata.str1.4,"aMS",%progbits,1
 830              		.align	2
 831              	.LC0:
 832 0000 5E4400   		.ascii	"^D\000"
 833 0003 00       		.space	1
 834              	.LC1:
 835 0004 0D0A00   		.ascii	"\015\012\000"
 836 0007 00       		.space	1
 837              	.LC2:
 838 0008 55736167 		.ascii	"Usage: %s\015\012\000"
 838      653A2025 
 838      730D0A00 
 839              	.LC3:
 840 0014 73797374 		.ascii	"systime\000"
 840      696D6500 
 841              	.LC4:
 842 001c 256C750D 		.ascii	"%lu\015\012\000"
 842      0A00
 843 0022 0000     		.space	2
 844              	.LC5:
 845 0024 696E666F 		.ascii	"info\000"
ARM GAS  /tmp/ccfOPfh9.s 			page 16


 845      00
 846 0029 000000   		.space	3
 847              	.LC6:
 848 002c 4B65726E 		.ascii	"Kernel:       %s\015\012\000"
 848      656C3A20 
 848      20202020 
 848      20202573 
 848      0D0A00
 849 003f 00       		.space	1
 850              	.LC7:
 851 0040 322E332E 		.ascii	"2.3.3unstable\000"
 851      33756E73 
 851      7461626C 
 851      6500
 852 004e 0000     		.space	2
 853              	.LC8:
 854 0050 436F6D70 		.ascii	"Compiler:     %s\015\012\000"
 854      696C6572 
 854      3A202020 
 854      20202573 
 854      0D0A00
 855 0063 00       		.space	1
 856              	.LC9:
 857 0064 47434320 		.ascii	"GCC 4.4.1\000"
 857      342E342E 
 857      3100
 858 006e 0000     		.space	2
 859              	.LC10:
 860 0070 41726368 		.ascii	"Architecture: %s\015\012\000"
 860      69746563 
 860      74757265 
 860      3A202573 
 860      0D0A00
 861 0083 00       		.space	1
 862              	.LC11:
 863 0084 41524D76 		.ascii	"ARMv7-M\000"
 863      372D4D00 
 864              	.LC12:
 865 008c 436F7265 		.ascii	"Core Variant: %s\015\012\000"
 865      20566172 
 865      69616E74 
 865      3A202573 
 865      0D0A00
 866 009f 00       		.space	1
 867              	.LC13:
 868 00a0 436F7274 		.ascii	"Cortex-M3\000"
 868      65782D4D 
 868      3300
 869 00aa 0000     		.space	2
 870              	.LC14:
 871 00ac 506F7274 		.ascii	"Port Info:    %s\015\012\000"
 871      20496E66 
 871      6F3A2020 
 871      20202573 
 871      0D0A00
 872 00bf 00       		.space	1
 873              	.LC15:
ARM GAS  /tmp/ccfOPfh9.s 			page 17


 874 00c0 41647661 		.ascii	"Advanced kernel mode\000"
 874      6E636564 
 874      206B6572 
 874      6E656C20 
 874      6D6F6465 
 875 00d5 000000   		.space	3
 876              	.LC16:
 877 00d8 506C6174 		.ascii	"Platform:     %s\015\012\000"
 877      666F726D 
 877      3A202020 
 877      20202573 
 877      0D0A00
 878 00eb 00       		.space	1
 879              	.LC17:
 880 00ec 53544D33 		.ascii	"STM32 Performance Line Medium Density\000"
 880      32205065 
 880      72666F72 
 880      6D616E63 
 880      65204C69 
 881 0112 0000     		.space	2
 882              	.LC18:
 883 0114 426F6172 		.ascii	"Board:        %s\015\012\000"
 883      643A2020 
 883      20202020 
 883      20202573 
 883      0D0A00
 884 0127 00       		.space	1
 885              	.LC19:
 886 0128 4F6C696D 		.ascii	"Olimex STM32-P103\000"
 886      65782053 
 886      544D3332 
 886      2D503130 
 886      3300
 887 013a 0000     		.space	2
 888              	.LC20:
 889 013c 0D0A4368 		.ascii	"\015\012ChibiOS/RT Shell\015\012\000"
 889      6962694F 
 889      532F5254 
 889      20536865 
 889      6C6C0D0A 
 890 0151 000000   		.space	3
 891              	.LC21:
 892 0154 63683E20 		.ascii	"ch> \000"
 892      00
 893 0159 000000   		.space	3
 894              	.LC22:
 895 015c 0D0A6C6F 		.ascii	"\015\012logout\000"
 895      676F7574 
 895      00
 896 0165 000000   		.space	3
 897              	.LC24:
 898 0168 746F6F20 		.ascii	"too many arguments\015\012\000"
 898      6D616E79 
 898      20617267 
 898      756D656E 
 898      74730D0A 
 899 017d 000000   		.space	3
ARM GAS  /tmp/ccfOPfh9.s 			page 18


 900              	.LC25:
 901 0180 65786974 		.ascii	"exit\000"
 901      00
 902 0185 000000   		.space	3
 903              	.LC26:
 904 0188 68656C70 		.ascii	"help\000"
 904      00
 905 018d 000000   		.space	3
 906              	.LC27:
 907 0190 436F6D6D 		.ascii	"Commands: help exit \000"
 907      616E6473 
 907      3A206865 
 907      6C702065 
 907      78697420 
 908 01a5 000000   		.space	3
 909              	.LC28:
 910 01a8 25732000 		.ascii	"%s \000"
 911              	.LC29:
 912 01ac 257300   		.ascii	"%s\000"
 913 01af 00       		.space	1
 914              	.LC30:
 915 01b0 203F0D0A 		.ascii	" ?\015\012\000"
 915      00
 916 01b5 000000   		.text
 917              	.Letext0: