ARM GAS  /tmp/ccN44fAn.s 			page 1


   1              		.syntax unified
   2              		.cpu cortex-m3
   3              		.fpu softvfp
   4              		.eabi_attribute 20, 1
   5              		.eabi_attribute 21, 1
   6              		.eabi_attribute 23, 3
   7              		.eabi_attribute 24, 1
   8              		.eabi_attribute 25, 1
   9              		.eabi_attribute 26, 1
  10              		.eabi_attribute 30, 2
  11              		.eabi_attribute 18, 4
  12              		.thumb
  13              		.file	"usb_msc.c"
  20 0000 5C020000 		.text
  20      02008301 
  20      00000201 
  20      FB0E0D00 
  20      01010101 
  21              	.Ltext0:
  22              		.cfi_sections	.debug_frame
  23              		.section	.text.mscDataReceived,"ax",%progbits
  24              		.align	2
  25              		.p2align 4,,15
  26              		.global	mscDataReceived
  27              		.thumb
  28              		.thumb_func
  29              		.type	mscDataReceived, %function
  30              	mscDataReceived:
  31              	.LFB43:
  32              		.file 1 "../../../os/various/usb_msc.c"
  33              		.loc 1 246 0
  34              		.cfi_startproc
  35              		@ args = 0, pretend = 0, frame = 0
  36              		@ frame_needed = 0, uses_anonymous_args = 0
  37              	.LVL0:
  38 0000 2DE9F041 		push	{r4, r5, r6, r7, r8, lr}
  39              	.LCFI0:
  40              		.cfi_def_cfa_offset 24
  41              		.loc 1 249 0
  42 0004 0C1D     		adds	r4, r1, #4
  43              		.cfi_offset 14, -4
  44              		.cfi_offset 8, -8
  45              		.cfi_offset 7, -12
  46              		.cfi_offset 6, -16
  47              		.cfi_offset 5, -20
  48              		.cfi_offset 4, -24
  49 0006 50F82420 		ldr	r2, [r0, r4, lsl #2]
  50              		.loc 1 250 0
  51 000a 40F20004 		movw	r4, #:lower16:.LANCHOR0
  52 000e C0F20004 		movt	r4, #:upper16:.LANCHOR0
  53              		.loc 1 249 0
ARM GAS  /tmp/ccN44fAn.s 			page 2


  54 0012 9369     		ldr	r3, [r2, #24]
  55              		.loc 1 250 0
  56 0014 2678     		ldrb	r6, [r4, #0]	@ zero_extendqisi2
  57              		.loc 1 246 0
  58 0016 8846     		mov	r8, r1
  59 0018 0546     		mov	r5, r0
  60              		.loc 1 249 0
  61 001a DB68     		ldr	r3, [r3, #12]
  62              	.LVL1:
  63              		.loc 1 250 0
  64 001c DEB9     		cbnz	r6, .L17
  65              	.LVL2:
  66              		.loc 1 252 0
  67 001e 202B     		cmp	r3, #32
  68 0020 0BD1     		bne	.L4
  69 0022 40F20007 		movw	r7, #:lower16:.LANCHOR1
  70 0026 C0F20007 		movt	r7, #:upper16:.LANCHOR1
  71 002a 45F25532 		movw	r2, #:lower16:1128420181
  72 002e D7F800C0 		ldr	ip, [r7, #0]
  73 0032 C4F24232 		movt	r2, #:upper16:1128420181
  74 0036 9445     		cmp	ip, r2
  75 0038 0FD0     		beq	.L22
  76              	.L4:
  77              		.loc 1 289 0
  78 003a 0420     		movs	r0, #4
  79 003c 2070     		strb	r0, [r4, #0]
  80              	.LBB40:
  81              		.loc 1 290 0
  82 003e 2023     		movs	r3, #32
  83              	.LVL3:
  84              	@ 290 "../../../os/various/usb_msc.c" 1
  85 0040 83F31188 		msr     BASEPRI, r3
  86              	@ 0 "" 2
  87              		.thumb
  88              	.LBE40:
  89              		.loc 1 291 0
  90 0044 2846     		mov	r0, r5
  91 0046 4146     		mov	r1, r8
  92 0048 FFF7FEFF 		bl	usbStallReceiveI
  93              	.LVL4:
  94              	.LBB41:
  95              		.loc 1 292 0
  96 004c 0023     		movs	r3, #0
  97              	.LVL5:
  98              	@ 292 "../../../os/various/usb_msc.c" 1
  99 004e 83F31188 		msr     BASEPRI, r3
 100              	@ 0 "" 2
 101              		.thumb
 102              	.LBE41:
 103              		.loc 1 293 0
 104 0052 BDE8F081 		pop	{r4, r5, r6, r7, r8, pc}
 105              	.LVL6:
 106              	.L17:
 107 0056 BDE8F081 		pop	{r4, r5, r6, r7, r8, pc}
 108              	.L22:
 109              	.LBB42:
 110              	.LBB44:
ARM GAS  /tmp/ccN44fAn.s 			page 3


 111              		.loc 1 143 0
 112 005a FA7B     		ldrb	r2, [r7, #15]	@ zero_extendqisi2
 113 005c 122A     		cmp	r2, #18
 114 005e 5ED0     		beq	.L7
 115 0060 232A     		cmp	r2, #35
 116 0062 13D0     		beq	.L8
 117 0064 032A     		cmp	r2, #3
 118 0066 47D0     		beq	.L6
 119              	.LBE44:
 120              	.LBE42:
 121              		.loc 1 257 0
 122 0068 BF68     		ldr	r7, [r7, #8]
 123 006a 002F     		cmp	r7, #0
 124 006c 6AD0     		beq	.L23
 125              	.L13:
 126              		.loc 1 295 0
 127 006e 0422     		movs	r2, #4
 128 0070 2270     		strb	r2, [r4, #0]
 129              	.LBB63:
 130              		.loc 1 296 0
 131              	@ 296 "../../../os/various/usb_msc.c" 1
 132 0072 83F31188 		msr     BASEPRI, r3
 133              	@ 0 "" 2
 134              	.LVL7:
 135              		.thumb
 136              	.LBE63:
 137              		.loc 1 297 0
 138 0076 FFF7FEFF 		bl	usbStallTransmitI
 139              	.LVL8:
 140              		.loc 1 298 0
 141 007a 2846     		mov	r0, r5
 142 007c 4146     		mov	r1, r8
 143 007e FFF7FEFF 		bl	usbStallReceiveI
 144              	.LBB64:
 145              		.loc 1 299 0
 146 0082 3346     		mov	r3, r6
 147              	.LVL9:
 148              	@ 299 "../../../os/various/usb_msc.c" 1
 149 0084 83F31188 		msr     BASEPRI, r3
 150              	@ 0 "" 2
 151              		.thumb
 152 0088 BDE8F081 		pop	{r4, r5, r6, r7, r8, pc}
 153              	.LVL10:
 154              	.L8:
 155              	.LBE64:
 156              	.LBB65:
 157              	.LBB43:
 158              		.loc 1 152 0
 159 008c 40F20002 		movw	r2, #:lower16:buf
 160 0090 C0F20002 		movt	r2, #:upper16:buf
 161              	.LBB50:
 162              	.LBB53:
 163              		.loc 1 124 0
 164 0094 D7F808C0 		ldr	ip, [r7, #8]
 165              	.LVL11:
 166              	.LBE53:
 167              	.LBE50:
ARM GAS  /tmp/ccN44fAn.s 			page 4


 168              		.loc 1 152 0
 169 0098 4FF0030E 		mov	lr, #3
 170 009c 82F808E0 		strb	lr, [r2, #8]
 171              		.loc 1 154 0
 172 00a0 4FF0080E 		mov	lr, #8
 173              	.LBB49:
 174              	.LBB56:
 175              		.loc 1 124 0
 176 00a4 BCF10B0F 		cmp	ip, #11
 177 00a8 94BF     		ite	ls
 178 00aa 6146     		movls	r1, ip
 179 00ac 0C21     		movhi	r1, #12
 180              	.LVL12:
 181              	.LBE56:
 182              	.LBE49:
 183              		.loc 1 154 0
 184 00ae 82F803E0 		strb	lr, [r2, #3]
 185              	.LBB48:
 186              	.LBB52:
 187              		.loc 1 126 0
 188 00b2 40F20008 		movw	r8, #:lower16:.LANCHOR2
 189              	.LVL13:
 190              	.LBE52:
 191              	.LBE48:
 192              		.loc 1 157 0
 193 00b6 4FF0040E 		mov	lr, #4
 194              	.LBB47:
 195              	.LBB57:
 196              		.loc 1 126 0
 197 00ba C1EB0C0C 		rsb	ip, r1, ip
 198 00be C0F20008 		movt	r8, #:upper16:.LANCHOR2
 199              	.LBE57:
 200              	.LBE47:
 201              		.loc 1 157 0
 202 00c2 82F806E0 		strb	lr, [r2, #6]
 203              		.loc 1 160 0
 204 00c6 4FF0020E 		mov	lr, #2
 205 00ca 82F80AE0 		strb	lr, [r2, #10]
 206              	.LBB46:
 207              	.LBB51:
 208              		.loc 1 126 0
 209 00ce C8F808C0 		str	ip, [r8, #8]
 210              	.LBE51:
 211              	.LBE46:
 212              		.loc 1 153 0
 213 00d2 9670     		strb	r6, [r2, #2]
 214 00d4 5670     		strb	r6, [r2, #1]
 215 00d6 1670     		strb	r6, [r2, #0]
 216              		.loc 1 155 0
 217 00d8 1671     		strb	r6, [r2, #4]
 218              		.loc 1 156 0
 219 00da 5671     		strb	r6, [r2, #5]
 220              		.loc 1 158 0
 221 00dc D671     		strb	r6, [r2, #7]
 222              		.loc 1 159 0
 223 00de 5672     		strb	r6, [r2, #9]
 224              		.loc 1 161 0
ARM GAS  /tmp/ccN44fAn.s 			page 5


 225 00e0 D672     		strb	r6, [r2, #11]
 226              	.LBB45:
 227              	.LBB58:
 228              	.LBB54:
 229              		.loc 1 127 0
 230              	@ 127 "../../../os/various/usb_msc.c" 1
 231 00e2 83F31188 		msr     BASEPRI, r3
 232              	@ 0 "" 2
 233              	.LVL14:
 234              		.thumb
 235              	.L20:
 236              	.LBE54:
 237              		.loc 1 128 0
 238 00e6 0B46     		mov	r3, r1
 239              	.LVL15:
 240 00e8 0121     		movs	r1, #1
 241              	.LVL16:
 242 00ea FFF7FEFF 		bl	usbStartTransmitI
 243              	.LBB55:
 244              		.loc 1 129 0
 245 00ee 3346     		mov	r3, r6
 246              	.LVL17:
 247              	@ 129 "../../../os/various/usb_msc.c" 1
 248 00f0 83F31188 		msr     BASEPRI, r3
 249              	@ 0 "" 2
 250              		.thumb
 251              	.LBE55:
 252              	.LBE58:
 253              	.LBE45:
 254              		.loc 1 163 0
 255 00f4 88F80C60 		strb	r6, [r8, #12]
 256              	.LVL18:
 257              	.L6:
 258              	.LBE43:
 259              	.LBE65:
 260              		.loc 1 267 0
 261 00f8 BE68     		ldr	r6, [r7, #8]
 262              	.LVL19:
 263 00fa 40F20003 		movw	r3, #:lower16:.LANCHOR1
 264              	.LVL20:
 265 00fe C0F20003 		movt	r3, #:upper16:.LANCHOR1
 266 0102 002E     		cmp	r6, #0
 267 0104 33D0     		beq	.L24
 268              		.loc 1 273 0
 269 0106 93F90C10 		ldrsb	r1, [r3, #12]
 270 010a 0029     		cmp	r1, #0
 271 010c 03DB     		blt	.L25
 272              		.loc 1 279 0
 273 010e 0122     		movs	r2, #1
 274 0110 2270     		strb	r2, [r4, #0]
 275 0112 BDE8F081 		pop	{r4, r5, r6, r7, r8, pc}
 276              	.L25:
 277              		.loc 1 275 0
 278 0116 0223     		movs	r3, #2
 279 0118 2370     		strb	r3, [r4, #0]
 280 011a BDE8F081 		pop	{r4, r5, r6, r7, r8, pc}
 281              	.LVL21:
ARM GAS  /tmp/ccN44fAn.s 			page 6


 282              	.L7:
 283              	.LBB66:
 284              	.LBB62:
 285              	.LBB59:
 286              	.LBB60:
 287              		.loc 1 124 0
 288 011e BA68     		ldr	r2, [r7, #8]
 289              	.LVL22:
 290              		.loc 1 126 0
 291 0120 40F20008 		movw	r8, #:lower16:.LANCHOR2
 292              	.LVL23:
 293              		.loc 1 124 0
 294 0124 232A     		cmp	r2, #35
 295 0126 94BF     		ite	ls
 296 0128 1146     		movls	r1, r2
 297 012a 2421     		movhi	r1, #36
 298              	.LVL24:
 299              		.loc 1 126 0
 300 012c 521A     		subs	r2, r2, r1
 301 012e C0F20008 		movt	r8, #:upper16:.LANCHOR2
 302 0132 C8F80820 		str	r2, [r8, #8]
 303              	.LBB61:
 304              		.loc 1 127 0
 305              	@ 127 "../../../os/various/usb_msc.c" 1
 306 0136 83F31188 		msr     BASEPRI, r3
 307              	@ 0 "" 2
 308              	.LVL25:
 309              		.thumb
 310              	.LBE61:
 311              		.loc 1 128 0
 312 013a 40F20002 		movw	r2, #:lower16:.LANCHOR3
 313 013e C0F20002 		movt	r2, #:upper16:.LANCHOR3
 314 0142 D0E7     		b	.L20
 315              	.LVL26:
 316              	.L23:
 317              	.LBE60:
 318              	.LBE59:
 319              	.LBE62:
 320              	.LBE66:
 321              		.loc 1 258 0
 322 0144 40F20002 		movw	r2, #:lower16:.LANCHOR2
 323 0148 C0F20002 		movt	r2, #:upper16:.LANCHOR2
 324 014c 0121     		movs	r1, #1
 325              	.LBB67:
 326              	.LBB68:
 327              		.loc 1 134 0
 328 014e 4FF0030E 		mov	lr, #3
 329 0152 84F800E0 		strb	lr, [r4, #0]
 330              	.LBE68:
 331              	.LBE67:
 332              		.loc 1 258 0
 333 0156 1173     		strb	r1, [r2, #12]
 334              		.loc 1 259 0
 335 0158 9760     		str	r7, [r2, #8]
 336              	.LBB72:
 337              	.LBB71:
 338              	.LBB69:
ARM GAS  /tmp/ccN44fAn.s 			page 7


 339              		.loc 1 135 0
 340              	@ 135 "../../../os/various/usb_msc.c" 1
 341 015a 83F31188 		msr     BASEPRI, r3
 342              	@ 0 "" 2
 343              	.LVL27:
 344              		.thumb
 345              	.LBE69:
 346              		.loc 1 136 0
 347 015e 1023     		movs	r3, #16
 348              	.LVL28:
 349 0160 FFF7FEFF 		bl	usbStartTransmitI
 350              	.LBB70:
 351              		.loc 1 137 0
 352 0164 3B46     		mov	r3, r7
 353              	.LVL29:
 354              	@ 137 "../../../os/various/usb_msc.c" 1
 355 0166 83F31188 		msr     BASEPRI, r3
 356              	@ 0 "" 2
 357              		.thumb
 358 016a BDE8F081 		pop	{r4, r5, r6, r7, r8, pc}
 359              	.LVL30:
 360              	.L24:
 361              	.LBE70:
 362              	.LBE71:
 363              	.LBE72:
 364              	.LBB73:
 365              	.LBB74:
 366              		.loc 1 134 0
 367 016e 0320     		movs	r0, #3
 368 0170 2070     		strb	r0, [r4, #0]
 369              	.LBB75:
 370              		.loc 1 135 0
 371 0172 2023     		movs	r3, #32
 372              	.LVL31:
 373              	@ 135 "../../../os/various/usb_msc.c" 1
 374 0174 83F31188 		msr     BASEPRI, r3
 375              	@ 0 "" 2
 376              		.thumb
 377              	.LBE75:
 378              		.loc 1 136 0
 379 0178 40F20002 		movw	r2, #:lower16:.LANCHOR2
 380 017c 1023     		movs	r3, #16
 381              	.LVL32:
 382 017e 2846     		mov	r0, r5
 383 0180 C0F20002 		movt	r2, #:upper16:.LANCHOR2
 384 0184 0121     		movs	r1, #1
 385 0186 FFF7FEFF 		bl	usbStartTransmitI
 386              	.LBB76:
 387              		.loc 1 137 0
 388 018a 3346     		mov	r3, r6
 389              	.LVL33:
 390              	@ 137 "../../../os/various/usb_msc.c" 1
 391 018c 83F31188 		msr     BASEPRI, r3
 392              	@ 0 "" 2
 393              		.thumb
 394              	.LBE76:
 395              	.LBE74:
ARM GAS  /tmp/ccN44fAn.s 			page 8


 396              	.LBE73:
 397              		.loc 1 269 0
 398 0190 BDE8F081 		pop	{r4, r5, r6, r7, r8, pc}
 399              		.cfi_endproc
 400              	.LFE43:
 401              		.size	mscDataReceived, .-mscDataReceived
 402 0194 AFF30080 		.section	.text.mscDataTransmitted,"ax",%progbits
 402      AFF30080 
 402      AFF30080 
 403              		.align	2
 404              		.p2align 4,,15
 405              		.global	mscDataTransmitted
 406              		.thumb
 407              		.thumb_func
 408              		.type	mscDataTransmitted, %function
 409              	mscDataTransmitted:
 410              	.LFB42:
 411              		.loc 1 216 0
 412              		.cfi_startproc
 413              		@ args = 0, pretend = 0, frame = 0
 414              		@ frame_needed = 0, uses_anonymous_args = 0
 415              	.LVL34:
 416 0000 38B5     		push	{r3, r4, r5, lr}
 417              	.LCFI1:
 418              		.cfi_def_cfa_offset 16
 419              		.loc 1 218 0
 420 0002 40F20004 		movw	r4, #:lower16:.LANCHOR0
 421              		.cfi_offset 14, -4
 422              		.cfi_offset 5, -8
 423              		.cfi_offset 4, -12
 424              		.cfi_offset 3, -16
 425 0006 C0F20004 		movt	r4, #:upper16:.LANCHOR0
 426 000a 2378     		ldrb	r3, [r4, #0]	@ zero_extendqisi2
 427 000c 022B     		cmp	r3, #2
 428 000e 10D0     		beq	.L28
 429 0010 032B     		cmp	r3, #3
 430 0012 0DD1     		bne	.L30
 431              	.LBB77:
 432              		.loc 1 228 0
 433 0014 2023     		movs	r3, #32
 434              	.LVL35:
 435              	@ 228 "../../../os/various/usb_msc.c" 1
 436 0016 83F31188 		msr     BASEPRI, r3
 437              	@ 0 "" 2
 438              		.thumb
 439              	.LBE77:
 440              		.loc 1 229 0
 441 001a 40F20002 		movw	r2, #:lower16:.LANCHOR1
 442 001e C0F20002 		movt	r2, #:upper16:.LANCHOR1
 443 0022 0221     		movs	r1, #2
 444              	.LVL36:
 445 0024 FFF7FEFF 		bl	usbStartReceiveI
 446              	.LVL37:
 447              	.LBB78:
 448              		.loc 1 230 0
 449 0028 0023     		movs	r3, #0
 450              	.LVL38:
ARM GAS  /tmp/ccN44fAn.s 			page 9


 451              	@ 230 "../../../os/various/usb_msc.c" 1
 452 002a 83F31188 		msr     BASEPRI, r3
 453              	@ 0 "" 2
 454              		.thumb
 455              	.LBE78:
 456              		.loc 1 231 0
 457 002e 2370     		strb	r3, [r4, #0]
 458              	.LVL39:
 459              	.L30:
 460 0030 38BD     		pop	{r3, r4, r5, pc}
 461              	.L28:
 462              		.loc 1 221 0
 463 0032 40F20002 		movw	r2, #:lower16:.LANCHOR1
 464 0036 C0F20002 		movt	r2, #:upper16:.LANCHOR1
 465 003a 5568     		ldr	r5, [r2, #4]
 466              		.loc 1 220 0
 467 003c 45F25533 		movw	r3, #:lower16:1396855637
 468 0040 40F20002 		movw	r2, #:lower16:.LANCHOR2
 469 0044 C0F20002 		movt	r2, #:upper16:.LANCHOR2
 470 0048 C5F24233 		movt	r3, #:upper16:1396855637
 471 004c 1360     		str	r3, [r2, #0]
 472              		.loc 1 221 0
 473 004e 5560     		str	r5, [r2, #4]
 474              	.LBB79:
 475              		.loc 1 222 0
 476 0050 2023     		movs	r3, #32
 477              	.LVL40:
 478              	@ 222 "../../../os/various/usb_msc.c" 1
 479 0052 83F31188 		msr     BASEPRI, r3
 480              	@ 0 "" 2
 481              		.thumb
 482              	.LBE79:
 483              		.loc 1 223 0
 484 0056 1023     		movs	r3, #16
 485              	.LVL41:
 486 0058 FFF7FEFF 		bl	usbStartTransmitI
 487              	.LVL42:
 488              	.LBB80:
 489              		.loc 1 224 0
 490 005c 0023     		movs	r3, #0
 491              	.LVL43:
 492              	@ 224 "../../../os/various/usb_msc.c" 1
 493 005e 83F31188 		msr     BASEPRI, r3
 494              	@ 0 "" 2
 495              		.thumb
 496              	.LBE80:
 497              		.loc 1 225 0
 498 0062 0323     		movs	r3, #3
 499              	.LVL44:
 500 0064 2370     		strb	r3, [r4, #0]
 501              		.loc 1 226 0
 502 0066 38BD     		pop	{r3, r4, r5, pc}
 503              		.cfi_endproc
 504              	.LFE42:
 505              		.size	mscDataTransmitted, .-mscDataTransmitted
 506 0068 AFF30080 		.section	.text.mscRequestsHook,"ax",%progbits
 506      AFF30080 
ARM GAS  /tmp/ccN44fAn.s 			page 10


 507              		.align	2
 508              		.p2align 4,,15
 509              		.global	mscRequestsHook
 510              		.thumb
 511              		.thumb_func
 512              		.type	mscRequestsHook, %function
 513              	mscRequestsHook:
 514              	.LFB41:
 515              		.loc 1 189 0
 516              		.cfi_startproc
 517              		@ args = 0, pretend = 0, frame = 0
 518              		@ frame_needed = 0, uses_anonymous_args = 0
 519              	.LVL45:
 520 0000 38B5     		push	{r3, r4, r5, lr}
 521              	.LCFI2:
 522              		.cfi_def_cfa_offset 16
 523              		.loc 1 191 0
 524 0002 90F84010 		ldrb	r1, [r0, #64]	@ zero_extendqisi2
 525              		.loc 1 189 0
 526 0006 0446     		mov	r4, r0
 527              		.cfi_offset 14, -4
 528              		.cfi_offset 5, -8
 529              		.cfi_offset 4, -12
 530              		.cfi_offset 3, -16
 531              		.loc 1 191 0
 532 0008 01F07F03 		and	r3, r1, #127
 533 000c 212B     		cmp	r3, #33
 534 000e 01D0     		beq	.L37
 535              	.LVL46:
 536              	.L32:
 537              		.loc 1 200 0
 538 0010 0020     		movs	r0, #0
 539              		.loc 1 206 0
 540 0012 38BD     		pop	{r3, r4, r5, pc}
 541              	.LVL47:
 542              	.L37:
 543              		.loc 1 193 0
 544 0014 90F84130 		ldrb	r3, [r0, #65]	@ zero_extendqisi2
 545 0018 FE2B     		cmp	r3, #254
 546 001a 19D0     		beq	.L33
 547              	.LVL48:
 548 001c FF2B     		cmp	r3, #255
 549 001e F7D1     		bne	.L32
 550              	.LBB81:
 551              	.LBB82:
 552              		.loc 1 116 0
 553 0020 40F20001 		movw	r1, #:lower16:.LANCHOR0
 554 0024 C0F20001 		movt	r1, #:upper16:.LANCHOR0
 555 0028 0025     		movs	r5, #0
 556 002a 0D70     		strb	r5, [r1, #0]
 557              	.LBB83:
 558              		.loc 1 117 0
 559 002c 2023     		movs	r3, #32
 560              	.LVL49:
 561              	@ 117 "../../../os/various/usb_msc.c" 1
 562 002e 83F31188 		msr     BASEPRI, r3
 563              	@ 0 "" 2
ARM GAS  /tmp/ccN44fAn.s 			page 11


 564              		.thumb
 565              	.LBE83:
 566              		.loc 1 118 0
 567 0032 40F20002 		movw	r2, #:lower16:.LANCHOR1
 568 0036 C0F20002 		movt	r2, #:upper16:.LANCHOR1
 569 003a 0221     		movs	r1, #2
 570 003c FFF7FEFF 		bl	usbStartReceiveI
 571              	.LVL50:
 572              	.LBB84:
 573              		.loc 1 119 0
 574 0040 2B46     		mov	r3, r5
 575              	.LVL51:
 576              	@ 119 "../../../os/various/usb_msc.c" 1
 577 0042 83F31188 		msr     BASEPRI, r3
 578              	@ 0 "" 2
 579              		.thumb
 580              	.LBE84:
 581              	.LBE82:
 582              	.LBE81:
 583              		.loc 1 199 0
 584 0046 0120     		movs	r0, #1
 585 0048 E563     		str	r5, [r4, #60]
 586 004a 6563     		str	r5, [r4, #52]
 587 004c A563     		str	r5, [r4, #56]
 588              		.loc 1 200 0
 589 004e 38BD     		pop	{r3, r4, r5, pc}
 590              	.LVL52:
 591              	.L33:
 592              		.loc 1 195 0
 593 0050 40F20003 		movw	r3, #:lower16:.LANCHOR4
 594 0054 C0F20003 		movt	r3, #:upper16:.LANCHOR4
 595 0058 0120     		movs	r0, #1
 596              	.LVL53:
 597 005a 0022     		movs	r2, #0
 598 005c E263     		str	r2, [r4, #60]
 599 005e 6363     		str	r3, [r4, #52]
 600 0060 A063     		str	r0, [r4, #56]
 601              		.loc 1 196 0
 602 0062 38BD     		pop	{r3, r4, r5, pc}
 603              		.cfi_endproc
 604              	.LFE41:
 605              		.size	mscRequestsHook, .-mscRequestsHook
 606              		.comm	buf,16,4
 607 0064 AFF30080 		.section	.bss.CBW,"aw",%nobits
 607      AFF30080 
 607      AFF30080 
 608              		.align	2
 609              		.set	.LANCHOR1,. + 0
 610              		.type	CBW, %object
 611              		.size	CBW, 32
 612              	CBW:
 613 0000 00000000 		.space	32
 613      00000000 
 613      00000000 
 613      00000000 
 613      00000000 
 614              		.section	.rodata.zerobuf,"a",%progbits
ARM GAS  /tmp/ccN44fAn.s 			page 12


 615              		.align	2
 616              		.set	.LANCHOR4,. + 0
 617              		.type	zerobuf, %object
 618              		.size	zerobuf, 4
 619              	zerobuf:
 620 0000 00000000 		.space	4
 621              		.section	.rodata.scsi_inquiry_data,"a",%progbits
 622              		.align	2
 623              		.set	.LANCHOR3,. + 0
 624              		.type	scsi_inquiry_data, %object
 625              		.size	scsi_inquiry_data, 36
 626              	scsi_inquiry_data:
 627 0000 00       		.byte	0
 628 0001 80       		.byte	-128
 629 0002 02       		.byte	2
 630 0003 00       		.byte	0
 631 0004 20       		.byte	32
 632 0005 00       		.byte	0
 633 0006 00       		.byte	0
 634 0007 00       		.byte	0
 635 0008 43       		.byte	67
 636 0009 68       		.byte	104
 637 000a 69       		.byte	105
 638 000b 62       		.byte	98
 639 000c 69       		.byte	105
 640 000d 4F       		.byte	79
 641 000e 53       		.byte	83
 642 000f 20       		.byte	32
 643 0010 53       		.byte	83
 644 0011 44       		.byte	68
 645 0012 20       		.byte	32
 646 0013 46       		.byte	70
 647 0014 6C       		.byte	108
 648 0015 61       		.byte	97
 649 0016 73       		.byte	115
 650 0017 68       		.byte	104
 651 0018 20       		.byte	32
 652 0019 44       		.byte	68
 653 001a 69       		.byte	105
 654 001b 73       		.byte	115
 655 001c 6B       		.byte	107
 656 001d 20       		.byte	32
 657 001e 20       		.byte	32
 658 001f 20       		.byte	32
 659 0020 31       		.byte	49
 660 0021 2E       		.byte	46
 661 0022 30       		.byte	48
 662 0023 20       		.byte	32
 663              		.section	.bss.msc_state,"aw",%nobits
 664              		.set	.LANCHOR0,. + 0
 665              		.type	msc_state, %object
 666              		.size	msc_state, 1
 667              	msc_state:
 668 0000 00       		.space	1
 669              		.section	.bss.CSW,"aw",%nobits
 670              		.align	2
 671              		.set	.LANCHOR2,. + 0
ARM GAS  /tmp/ccN44fAn.s 			page 13


 672              		.type	CSW, %object
 673              		.size	CSW, 16
 674              	CSW:
 675 0000 00000000 		.space	16
 675      00000000 
 675      00000000 
 675      00000000 
 676              		.text
 677              	.Letext0: